
./test：     文件格式 elf32-littlearm


Disassembly of section .init:

00010168 <_init>:
   10168:	e92d4008 	push	{r3, lr}
   1016c:	eb000029 	bl	10218 <call_weak_fn>
   10170:	e8bd8008 	pop	{r3, pc}

Disassembly of section .iplt:

00010174 <.iplt>:
   10174:	4778      	bx	pc
   10176:	46c0      	nop			; (mov r8, r8)
   10178:	e28fc600 	add	ip, pc, #0, 12
   1017c:	e28cca67 	add	ip, ip, #421888	; 0x67000
   10180:	e5bcfe8c 	ldr	pc, [ip, #3724]!	; 0xe8c
   10184:	e28fc600 	add	ip, pc, #0, 12
   10188:	e28cca67 	add	ip, ip, #421888	; 0x67000
   1018c:	e5bcfe84 	ldr	pc, [ip, #3716]!	; 0xe84

Disassembly of section .text:

000101c0 <backtrace_and_maps.constprop.0>:
   101c0:	4770      	bx	lr

000101c2 <oom>:
   101c2:	2002      	movs	r0, #2
   101c4:	f642 1160 	movw	r1, #10592	; 0x2960
   101c8:	b508      	push	{r3, lr}
   101ca:	f2c0 0106 	movt	r1, #6
   101ce:	f033 fe15 	bl	43dfc <_dl_dprintf>
   101d2:	207f      	movs	r0, #127	; 0x7f
   101d4:	f010 fffa 	bl	211cc <_exit>

000101d8 <fini>:
   101d8:	f649 0360 	movw	r3, #39008	; 0x9860
   101dc:	f2c0 0307 	movt	r3, #7
   101e0:	6958      	ldr	r0, [r3, #20]
   101e2:	f03c b803 	b.w	4c1ec <check_free.isra.0>
   101e6:	bf00      	nop

000101e8 <_start>:
   101e8:	f04f 0b00 	mov.w	fp, #0
   101ec:	f04f 0e00 	mov.w	lr, #0
   101f0:	bc02      	pop	{r1}
   101f2:	466a      	mov	r2, sp
   101f4:	b404      	push	{r2}
   101f6:	b401      	push	{r0}
   101f8:	f8df c010 	ldr.w	ip, [pc, #16]	; 1020c <_start+0x24>
   101fc:	f84d cd04 	str.w	ip, [sp, #-4]!
   10200:	4803      	ldr	r0, [pc, #12]	; (10210 <_start+0x28>)
   10202:	4b04      	ldr	r3, [pc, #16]	; (10214 <_start+0x2c>)
   10204:	f000 fba0 	bl	10948 <__libc_start_main>
   10208:	f003 ff16 	bl	14038 <abort>
   1020c:	00010ea5 	.word	0x00010ea5
   10210:	000781b4 	.word	0x000781b4
   10214:	00010e35 	.word	0x00010e35

00010218 <call_weak_fn>:
   10218:	e59f3014 	ldr	r3, [pc, #20]	; 10234 <call_weak_fn+0x1c>
   1021c:	e59f2014 	ldr	r2, [pc, #20]	; 10238 <call_weak_fn+0x20>
   10220:	e08f3003 	add	r3, pc, r3
   10224:	e7932002 	ldr	r2, [r3, r2]
   10228:	e3520000 	cmp	r2, #0
   1022c:	012fff1e 	bxeq	lr
   10230:	e320f000 	nop	{0}
   10234:	00067dd8 	.word	0x00067dd8
   10238:	000000a8 	.word	0x000000a8

0001023c <deregister_tm_clones>:
   1023c:	f249 1088 	movw	r0, #37256	; 0x9188
   10240:	f2c0 0007 	movt	r0, #7
   10244:	f249 1388 	movw	r3, #37256	; 0x9188
   10248:	f2c0 0307 	movt	r3, #7
   1024c:	4283      	cmp	r3, r0
   1024e:	d005      	beq.n	1025c <deregister_tm_clones+0x20>
   10250:	f240 0300 	movw	r3, #0
   10254:	f2c0 0300 	movt	r3, #0
   10258:	b103      	cbz	r3, 1025c <deregister_tm_clones+0x20>
   1025a:	4718      	bx	r3
   1025c:	4770      	bx	lr
   1025e:	bf00      	nop

00010260 <register_tm_clones>:
   10260:	f249 1088 	movw	r0, #37256	; 0x9188
   10264:	f2c0 0007 	movt	r0, #7
   10268:	f249 1188 	movw	r1, #37256	; 0x9188
   1026c:	f2c0 0107 	movt	r1, #7
   10270:	1a09      	subs	r1, r1, r0
   10272:	1089      	asrs	r1, r1, #2
   10274:	eb01 71d1 	add.w	r1, r1, r1, lsr #31
   10278:	1049      	asrs	r1, r1, #1
   1027a:	d005      	beq.n	10288 <register_tm_clones+0x28>
   1027c:	f240 0300 	movw	r3, #0
   10280:	f2c0 0300 	movt	r3, #0
   10284:	b103      	cbz	r3, 10288 <register_tm_clones+0x28>
   10286:	4718      	bx	r3
   10288:	4770      	bx	lr
   1028a:	bf00      	nop

0001028c <__do_global_dtors_aux>:
   1028c:	b510      	push	{r4, lr}
   1028e:	f249 1488 	movw	r4, #37256	; 0x9188
   10292:	f2c0 0407 	movt	r4, #7
   10296:	7823      	ldrb	r3, [r4, #0]
   10298:	b973      	cbnz	r3, 102b8 <__do_global_dtors_aux+0x2c>
   1029a:	f7ff ffcf 	bl	1023c <deregister_tm_clones>
   1029e:	f240 0300 	movw	r3, #0
   102a2:	f2c0 0300 	movt	r3, #0
   102a6:	b12b      	cbz	r3, 102b4 <__do_global_dtors_aux+0x28>
   102a8:	f247 00f0 	movw	r0, #28912	; 0x70f0
   102ac:	f2c0 0006 	movt	r0, #6
   102b0:	f3af 8000 	nop.w
   102b4:	2301      	movs	r3, #1
   102b6:	7023      	strb	r3, [r4, #0]
   102b8:	bd10      	pop	{r4, pc}
   102ba:	bf00      	nop

000102bc <frame_dummy>:
   102bc:	b508      	push	{r3, lr}
   102be:	f240 0300 	movw	r3, #0
   102c2:	f2c0 0300 	movt	r3, #0
   102c6:	b14b      	cbz	r3, 102dc <frame_dummy+0x20>
   102c8:	f249 118c 	movw	r1, #37260	; 0x918c
   102cc:	f247 00f0 	movw	r0, #28912	; 0x70f0
   102d0:	f2c0 0107 	movt	r1, #7
   102d4:	f2c0 0006 	movt	r0, #6
   102d8:	f3af 8000 	nop.w
   102dc:	e8bd 4008 	ldmia.w	sp!, {r3, lr}
   102e0:	e7be      	b.n	10260 <register_tm_clones>
   102e2:	bf00      	nop

000102e4 <getint>:
   102e4:	b590      	push	{r4, r7, lr}
   102e6:	b083      	sub	sp, #12
   102e8:	af00      	add	r7, sp, #0
   102ea:	4c0d      	ldr	r4, [pc, #52]	; (10320 <getint+0x3c>)
   102ec:	447c      	add	r4, pc
   102ee:	4b0d      	ldr	r3, [pc, #52]	; (10324 <getint+0x40>)
   102f0:	58e3      	ldr	r3, [r4, r3]
   102f2:	681b      	ldr	r3, [r3, #0]
   102f4:	607b      	str	r3, [r7, #4]
   102f6:	463b      	mov	r3, r7
   102f8:	4619      	mov	r1, r3
   102fa:	4b0b      	ldr	r3, [pc, #44]	; (10328 <getint+0x44>)
   102fc:	447b      	add	r3, pc
   102fe:	4618      	mov	r0, r3
   10300:	f004 fe30 	bl	14f64 <__isoc99_scanf>
   10304:	683b      	ldr	r3, [r7, #0]
   10306:	4618      	mov	r0, r3
   10308:	4b06      	ldr	r3, [pc, #24]	; (10324 <getint+0x40>)
   1030a:	58e3      	ldr	r3, [r4, r3]
   1030c:	687a      	ldr	r2, [r7, #4]
   1030e:	681b      	ldr	r3, [r3, #0]
   10310:	429a      	cmp	r2, r3
   10312:	d001      	beq.n	10318 <getint+0x34>
   10314:	f012 ffec 	bl	232f0 <__stack_chk_fail>
   10318:	370c      	adds	r7, #12
   1031a:	46bd      	mov	sp, r7
   1031c:	bd90      	pop	{r4, r7, pc}
   1031e:	bf00      	nop
   10320:	00067d10 	.word	0x00067d10
   10324:	0000002c 	.word	0x0000002c
   10328:	000418cc 	.word	0x000418cc

0001032c <getch>:
   1032c:	b590      	push	{r4, r7, lr}
   1032e:	b083      	sub	sp, #12
   10330:	af00      	add	r7, sp, #0
   10332:	4c0d      	ldr	r4, [pc, #52]	; (10368 <getch+0x3c>)
   10334:	447c      	add	r4, pc
   10336:	4b0d      	ldr	r3, [pc, #52]	; (1036c <getch+0x40>)
   10338:	58e3      	ldr	r3, [r4, r3]
   1033a:	681b      	ldr	r3, [r3, #0]
   1033c:	607b      	str	r3, [r7, #4]
   1033e:	1cfb      	adds	r3, r7, #3
   10340:	4619      	mov	r1, r3
   10342:	4b0b      	ldr	r3, [pc, #44]	; (10370 <getch+0x44>)
   10344:	447b      	add	r3, pc
   10346:	4618      	mov	r0, r3
   10348:	f004 fe0c 	bl	14f64 <__isoc99_scanf>
   1034c:	78fb      	ldrb	r3, [r7, #3]
   1034e:	4618      	mov	r0, r3
   10350:	4b06      	ldr	r3, [pc, #24]	; (1036c <getch+0x40>)
   10352:	58e3      	ldr	r3, [r4, r3]
   10354:	687a      	ldr	r2, [r7, #4]
   10356:	681b      	ldr	r3, [r3, #0]
   10358:	429a      	cmp	r2, r3
   1035a:	d001      	beq.n	10360 <getch+0x34>
   1035c:	f012 ffc8 	bl	232f0 <__stack_chk_fail>
   10360:	370c      	adds	r7, #12
   10362:	46bd      	mov	sp, r7
   10364:	bd90      	pop	{r4, r7, pc}
   10366:	bf00      	nop
   10368:	00067cc8 	.word	0x00067cc8
   1036c:	0000002c 	.word	0x0000002c
   10370:	00041888 	.word	0x00041888

00010374 <getarray>:
   10374:	b590      	push	{r4, r7, lr}
   10376:	b087      	sub	sp, #28
   10378:	af00      	add	r7, sp, #0
   1037a:	6078      	str	r0, [r7, #4]
   1037c:	4c17      	ldr	r4, [pc, #92]	; (103dc <getarray+0x68>)
   1037e:	447c      	add	r4, pc
   10380:	4b17      	ldr	r3, [pc, #92]	; (103e0 <getarray+0x6c>)
   10382:	58e3      	ldr	r3, [r4, r3]
   10384:	681b      	ldr	r3, [r3, #0]
   10386:	617b      	str	r3, [r7, #20]
   10388:	f107 030c 	add.w	r3, r7, #12
   1038c:	4619      	mov	r1, r3
   1038e:	4b15      	ldr	r3, [pc, #84]	; (103e4 <getarray+0x70>)
   10390:	447b      	add	r3, pc
   10392:	4618      	mov	r0, r3
   10394:	f004 fde6 	bl	14f64 <__isoc99_scanf>
   10398:	2300      	movs	r3, #0
   1039a:	613b      	str	r3, [r7, #16]
   1039c:	e00c      	b.n	103b8 <getarray+0x44>
   1039e:	693b      	ldr	r3, [r7, #16]
   103a0:	009b      	lsls	r3, r3, #2
   103a2:	687a      	ldr	r2, [r7, #4]
   103a4:	4413      	add	r3, r2
   103a6:	4619      	mov	r1, r3
   103a8:	4b0f      	ldr	r3, [pc, #60]	; (103e8 <getarray+0x74>)
   103aa:	447b      	add	r3, pc
   103ac:	4618      	mov	r0, r3
   103ae:	f004 fdd9 	bl	14f64 <__isoc99_scanf>
   103b2:	693b      	ldr	r3, [r7, #16]
   103b4:	3301      	adds	r3, #1
   103b6:	613b      	str	r3, [r7, #16]
   103b8:	68fb      	ldr	r3, [r7, #12]
   103ba:	693a      	ldr	r2, [r7, #16]
   103bc:	429a      	cmp	r2, r3
   103be:	dbee      	blt.n	1039e <getarray+0x2a>
   103c0:	68fb      	ldr	r3, [r7, #12]
   103c2:	4618      	mov	r0, r3
   103c4:	4b06      	ldr	r3, [pc, #24]	; (103e0 <getarray+0x6c>)
   103c6:	58e3      	ldr	r3, [r4, r3]
   103c8:	697a      	ldr	r2, [r7, #20]
   103ca:	681b      	ldr	r3, [r3, #0]
   103cc:	429a      	cmp	r2, r3
   103ce:	d001      	beq.n	103d4 <getarray+0x60>
   103d0:	f012 ff8e 	bl	232f0 <__stack_chk_fail>
   103d4:	371c      	adds	r7, #28
   103d6:	46bd      	mov	sp, r7
   103d8:	bd90      	pop	{r4, r7, pc}
   103da:	bf00      	nop
   103dc:	00067c7e 	.word	0x00067c7e
   103e0:	0000002c 	.word	0x0000002c
   103e4:	00041838 	.word	0x00041838
   103e8:	0004181e 	.word	0x0004181e

000103ec <putint>:
   103ec:	b580      	push	{r7, lr}
   103ee:	b082      	sub	sp, #8
   103f0:	af00      	add	r7, sp, #0
   103f2:	6078      	str	r0, [r7, #4]
   103f4:	6879      	ldr	r1, [r7, #4]
   103f6:	4b04      	ldr	r3, [pc, #16]	; (10408 <putint+0x1c>)
   103f8:	447b      	add	r3, pc
   103fa:	4618      	mov	r0, r3
   103fc:	f004 fd76 	bl	14eec <_IO_printf>
   10400:	bf00      	nop
   10402:	3708      	adds	r7, #8
   10404:	46bd      	mov	sp, r7
   10406:	bd80      	pop	{r7, pc}
   10408:	000417d0 	.word	0x000417d0

0001040c <putch>:
   1040c:	b580      	push	{r7, lr}
   1040e:	b082      	sub	sp, #8
   10410:	af00      	add	r7, sp, #0
   10412:	6078      	str	r0, [r7, #4]
   10414:	6878      	ldr	r0, [r7, #4]
   10416:	f005 f947 	bl	156a8 <putchar>
   1041a:	bf00      	nop
   1041c:	3708      	adds	r7, #8
   1041e:	46bd      	mov	sp, r7
   10420:	bd80      	pop	{r7, pc}

00010422 <putarray>:
   10422:	b580      	push	{r7, lr}
   10424:	b084      	sub	sp, #16
   10426:	af00      	add	r7, sp, #0
   10428:	6078      	str	r0, [r7, #4]
   1042a:	6039      	str	r1, [r7, #0]
   1042c:	6879      	ldr	r1, [r7, #4]
   1042e:	4b10      	ldr	r3, [pc, #64]	; (10470 <putarray+0x4e>)
   10430:	447b      	add	r3, pc
   10432:	4618      	mov	r0, r3
   10434:	f004 fd5a 	bl	14eec <_IO_printf>
   10438:	2300      	movs	r3, #0
   1043a:	60fb      	str	r3, [r7, #12]
   1043c:	e00d      	b.n	1045a <putarray+0x38>
   1043e:	68fb      	ldr	r3, [r7, #12]
   10440:	009b      	lsls	r3, r3, #2
   10442:	683a      	ldr	r2, [r7, #0]
   10444:	4413      	add	r3, r2
   10446:	681b      	ldr	r3, [r3, #0]
   10448:	4619      	mov	r1, r3
   1044a:	4b0a      	ldr	r3, [pc, #40]	; (10474 <putarray+0x52>)
   1044c:	447b      	add	r3, pc
   1044e:	4618      	mov	r0, r3
   10450:	f004 fd4c 	bl	14eec <_IO_printf>
   10454:	68fb      	ldr	r3, [r7, #12]
   10456:	3301      	adds	r3, #1
   10458:	60fb      	str	r3, [r7, #12]
   1045a:	68fa      	ldr	r2, [r7, #12]
   1045c:	687b      	ldr	r3, [r7, #4]
   1045e:	429a      	cmp	r2, r3
   10460:	dbed      	blt.n	1043e <putarray+0x1c>
   10462:	200a      	movs	r0, #10
   10464:	f005 f920 	bl	156a8 <putchar>
   10468:	bf00      	nop
   1046a:	3710      	adds	r7, #16
   1046c:	46bd      	mov	sp, r7
   1046e:	bd80      	pop	{r7, pc}
   10470:	000417a0 	.word	0x000417a0
   10474:	00041788 	.word	0x00041788

00010478 <before_main>:
   10478:	b480      	push	{r7}
   1047a:	b083      	sub	sp, #12
   1047c:	af00      	add	r7, sp, #0
   1047e:	4b21      	ldr	r3, [pc, #132]	; (10504 <before_main+0x8c>)
   10480:	447b      	add	r3, pc
   10482:	2200      	movs	r2, #0
   10484:	607a      	str	r2, [r7, #4]
   10486:	e02d      	b.n	104e4 <before_main+0x6c>
   10488:	4a1f      	ldr	r2, [pc, #124]	; (10508 <before_main+0x90>)
   1048a:	589a      	ldr	r2, [r3, r2]
   1048c:	4610      	mov	r0, r2
   1048e:	687a      	ldr	r2, [r7, #4]
   10490:	2100      	movs	r1, #0
   10492:	f840 1022 	str.w	r1, [r0, r2, lsl #2]
   10496:	4a1c      	ldr	r2, [pc, #112]	; (10508 <before_main+0x90>)
   10498:	589a      	ldr	r2, [r3, r2]
   1049a:	4611      	mov	r1, r2
   1049c:	687a      	ldr	r2, [r7, #4]
   1049e:	f851 1022 	ldr.w	r1, [r1, r2, lsl #2]
   104a2:	4a1a      	ldr	r2, [pc, #104]	; (1050c <before_main+0x94>)
   104a4:	589a      	ldr	r2, [r3, r2]
   104a6:	4610      	mov	r0, r2
   104a8:	687a      	ldr	r2, [r7, #4]
   104aa:	f840 1022 	str.w	r1, [r0, r2, lsl #2]
   104ae:	4a17      	ldr	r2, [pc, #92]	; (1050c <before_main+0x94>)
   104b0:	589a      	ldr	r2, [r3, r2]
   104b2:	4611      	mov	r1, r2
   104b4:	687a      	ldr	r2, [r7, #4]
   104b6:	f851 1022 	ldr.w	r1, [r1, r2, lsl #2]
   104ba:	4a15      	ldr	r2, [pc, #84]	; (10510 <before_main+0x98>)
   104bc:	589a      	ldr	r2, [r3, r2]
   104be:	4610      	mov	r0, r2
   104c0:	687a      	ldr	r2, [r7, #4]
   104c2:	f840 1022 	str.w	r1, [r0, r2, lsl #2]
   104c6:	4a12      	ldr	r2, [pc, #72]	; (10510 <before_main+0x98>)
   104c8:	589a      	ldr	r2, [r3, r2]
   104ca:	4611      	mov	r1, r2
   104cc:	687a      	ldr	r2, [r7, #4]
   104ce:	f851 1022 	ldr.w	r1, [r1, r2, lsl #2]
   104d2:	4a10      	ldr	r2, [pc, #64]	; (10514 <before_main+0x9c>)
   104d4:	589a      	ldr	r2, [r3, r2]
   104d6:	4610      	mov	r0, r2
   104d8:	687a      	ldr	r2, [r7, #4]
   104da:	f840 1022 	str.w	r1, [r0, r2, lsl #2]
   104de:	687a      	ldr	r2, [r7, #4]
   104e0:	3201      	adds	r2, #1
   104e2:	607a      	str	r2, [r7, #4]
   104e4:	687a      	ldr	r2, [r7, #4]
   104e6:	f5b2 6f80 	cmp.w	r2, #1024	; 0x400
   104ea:	dbcd      	blt.n	10488 <before_main+0x10>
   104ec:	4a0a      	ldr	r2, [pc, #40]	; (10518 <before_main+0xa0>)
   104ee:	589b      	ldr	r3, [r3, r2]
   104f0:	461a      	mov	r2, r3
   104f2:	2301      	movs	r3, #1
   104f4:	6013      	str	r3, [r2, #0]
   104f6:	bf00      	nop
   104f8:	370c      	adds	r7, #12
   104fa:	46bd      	mov	sp, r7
   104fc:	f85d 7b04 	ldr.w	r7, [sp], #4
   10500:	4770      	bx	lr
   10502:	bf00      	nop
   10504:	00067b7c 	.word	0x00067b7c
   10508:	000000ac 	.word	0x000000ac
   1050c:	00000050 	.word	0x00000050
   10510:	00000090 	.word	0x00000090
   10514:	00000058 	.word	0x00000058
   10518:	00000024 	.word	0x00000024

0001051c <after_main>:
   1051c:	b5f0      	push	{r4, r5, r6, r7, lr}
   1051e:	b089      	sub	sp, #36	; 0x24
   10520:	af04      	add	r7, sp, #16
   10522:	4c67      	ldr	r4, [pc, #412]	; (106c0 <after_main+0x1a4>)
   10524:	447c      	add	r4, pc
   10526:	2301      	movs	r3, #1
   10528:	60fb      	str	r3, [r7, #12]
   1052a:	e0a7      	b.n	1067c <after_main+0x160>
   1052c:	4b65      	ldr	r3, [pc, #404]	; (106c4 <after_main+0x1a8>)
   1052e:	58e3      	ldr	r3, [r4, r3]
   10530:	681d      	ldr	r5, [r3, #0]
   10532:	4b65      	ldr	r3, [pc, #404]	; (106c8 <after_main+0x1ac>)
   10534:	58e3      	ldr	r3, [r4, r3]
   10536:	461a      	mov	r2, r3
   10538:	68fb      	ldr	r3, [r7, #12]
   1053a:	f852 6023 	ldr.w	r6, [r2, r3, lsl #2]
   1053e:	4b63      	ldr	r3, [pc, #396]	; (106cc <after_main+0x1b0>)
   10540:	58e3      	ldr	r3, [r4, r3]
   10542:	461a      	mov	r2, r3
   10544:	68fb      	ldr	r3, [r7, #12]
   10546:	f852 3023 	ldr.w	r3, [r2, r3, lsl #2]
   1054a:	607b      	str	r3, [r7, #4]
   1054c:	4b60      	ldr	r3, [pc, #384]	; (106d0 <after_main+0x1b4>)
   1054e:	58e3      	ldr	r3, [r4, r3]
   10550:	461a      	mov	r2, r3
   10552:	68fb      	ldr	r3, [r7, #12]
   10554:	f852 3023 	ldr.w	r3, [r2, r3, lsl #2]
   10558:	4a5e      	ldr	r2, [pc, #376]	; (106d4 <after_main+0x1b8>)
   1055a:	58a2      	ldr	r2, [r4, r2]
   1055c:	4611      	mov	r1, r2
   1055e:	68fa      	ldr	r2, [r7, #12]
   10560:	f851 2022 	ldr.w	r2, [r1, r2, lsl #2]
   10564:	495c      	ldr	r1, [pc, #368]	; (106d8 <after_main+0x1bc>)
   10566:	5861      	ldr	r1, [r4, r1]
   10568:	4608      	mov	r0, r1
   1056a:	68f9      	ldr	r1, [r7, #12]
   1056c:	f850 1021 	ldr.w	r1, [r0, r1, lsl #2]
   10570:	485a      	ldr	r0, [pc, #360]	; (106dc <after_main+0x1c0>)
   10572:	5820      	ldr	r0, [r4, r0]
   10574:	4684      	mov	ip, r0
   10576:	68f8      	ldr	r0, [r7, #12]
   10578:	f85c 0020 	ldr.w	r0, [ip, r0, lsl #2]
   1057c:	9003      	str	r0, [sp, #12]
   1057e:	9102      	str	r1, [sp, #8]
   10580:	9201      	str	r2, [sp, #4]
   10582:	9300      	str	r3, [sp, #0]
   10584:	687b      	ldr	r3, [r7, #4]
   10586:	4632      	mov	r2, r6
   10588:	4955      	ldr	r1, [pc, #340]	; (106e0 <after_main+0x1c4>)
   1058a:	4479      	add	r1, pc
   1058c:	4628      	mov	r0, r5
   1058e:	f004 fc91 	bl	14eb4 <__fprintf>
   10592:	4b52      	ldr	r3, [pc, #328]	; (106dc <after_main+0x1c0>)
   10594:	58e3      	ldr	r3, [r4, r3]
   10596:	681a      	ldr	r2, [r3, #0]
   10598:	4b50      	ldr	r3, [pc, #320]	; (106dc <after_main+0x1c0>)
   1059a:	58e3      	ldr	r3, [r4, r3]
   1059c:	4619      	mov	r1, r3
   1059e:	68fb      	ldr	r3, [r7, #12]
   105a0:	f851 3023 	ldr.w	r3, [r1, r3, lsl #2]
   105a4:	4413      	add	r3, r2
   105a6:	4a4d      	ldr	r2, [pc, #308]	; (106dc <after_main+0x1c0>)
   105a8:	58a2      	ldr	r2, [r4, r2]
   105aa:	6013      	str	r3, [r2, #0]
   105ac:	4b4a      	ldr	r3, [pc, #296]	; (106d8 <after_main+0x1bc>)
   105ae:	58e3      	ldr	r3, [r4, r3]
   105b0:	681a      	ldr	r2, [r3, #0]
   105b2:	4b49      	ldr	r3, [pc, #292]	; (106d8 <after_main+0x1bc>)
   105b4:	58e3      	ldr	r3, [r4, r3]
   105b6:	4619      	mov	r1, r3
   105b8:	68fb      	ldr	r3, [r7, #12]
   105ba:	f851 3023 	ldr.w	r3, [r1, r3, lsl #2]
   105be:	4413      	add	r3, r2
   105c0:	4a45      	ldr	r2, [pc, #276]	; (106d8 <after_main+0x1bc>)
   105c2:	58a2      	ldr	r2, [r4, r2]
   105c4:	6013      	str	r3, [r2, #0]
   105c6:	4b45      	ldr	r3, [pc, #276]	; (106dc <after_main+0x1c0>)
   105c8:	58e3      	ldr	r3, [r4, r3]
   105ca:	681a      	ldr	r2, [r3, #0]
   105cc:	f64d 6383 	movw	r3, #56963	; 0xde83
   105d0:	f2c4 331b 	movt	r3, #17179	; 0x431b
   105d4:	fb82 0103 	smull	r0, r1, r2, r3
   105d8:	1489      	asrs	r1, r1, #18
   105da:	17d3      	asrs	r3, r2, #31
   105dc:	1acb      	subs	r3, r1, r3
   105de:	f244 2140 	movw	r1, #16960	; 0x4240
   105e2:	f2c0 010f 	movt	r1, #15
   105e6:	fb01 f303 	mul.w	r3, r1, r3
   105ea:	1ad3      	subs	r3, r2, r3
   105ec:	4a3b      	ldr	r2, [pc, #236]	; (106dc <after_main+0x1c0>)
   105ee:	58a2      	ldr	r2, [r4, r2]
   105f0:	6013      	str	r3, [r2, #0]
   105f2:	4b38      	ldr	r3, [pc, #224]	; (106d4 <after_main+0x1b8>)
   105f4:	58e3      	ldr	r3, [r4, r3]
   105f6:	681a      	ldr	r2, [r3, #0]
   105f8:	4b36      	ldr	r3, [pc, #216]	; (106d4 <after_main+0x1b8>)
   105fa:	58e3      	ldr	r3, [r4, r3]
   105fc:	4619      	mov	r1, r3
   105fe:	68fb      	ldr	r3, [r7, #12]
   10600:	f851 3023 	ldr.w	r3, [r1, r3, lsl #2]
   10604:	4413      	add	r3, r2
   10606:	4a33      	ldr	r2, [pc, #204]	; (106d4 <after_main+0x1b8>)
   10608:	58a2      	ldr	r2, [r4, r2]
   1060a:	6013      	str	r3, [r2, #0]
   1060c:	4b32      	ldr	r3, [pc, #200]	; (106d8 <after_main+0x1bc>)
   1060e:	58e3      	ldr	r3, [r4, r3]
   10610:	681b      	ldr	r3, [r3, #0]
   10612:	f648 0289 	movw	r2, #34953	; 0x8889
   10616:	f6c8 0288 	movt	r2, #34952	; 0x8888
   1061a:	fb83 1202 	smull	r1, r2, r3, r2
   1061e:	441a      	add	r2, r3
   10620:	1151      	asrs	r1, r2, #5
   10622:	17da      	asrs	r2, r3, #31
   10624:	1a8a      	subs	r2, r1, r2
   10626:	213c      	movs	r1, #60	; 0x3c
   10628:	fb01 f202 	mul.w	r2, r1, r2
   1062c:	1a9a      	subs	r2, r3, r2
   1062e:	4b2a      	ldr	r3, [pc, #168]	; (106d8 <after_main+0x1bc>)
   10630:	58e3      	ldr	r3, [r4, r3]
   10632:	601a      	str	r2, [r3, #0]
   10634:	4b26      	ldr	r3, [pc, #152]	; (106d0 <after_main+0x1b4>)
   10636:	58e3      	ldr	r3, [r4, r3]
   10638:	681a      	ldr	r2, [r3, #0]
   1063a:	4b25      	ldr	r3, [pc, #148]	; (106d0 <after_main+0x1b4>)
   1063c:	58e3      	ldr	r3, [r4, r3]
   1063e:	4619      	mov	r1, r3
   10640:	68fb      	ldr	r3, [r7, #12]
   10642:	f851 3023 	ldr.w	r3, [r1, r3, lsl #2]
   10646:	4413      	add	r3, r2
   10648:	4a21      	ldr	r2, [pc, #132]	; (106d0 <after_main+0x1b4>)
   1064a:	58a2      	ldr	r2, [r4, r2]
   1064c:	6013      	str	r3, [r2, #0]
   1064e:	4b21      	ldr	r3, [pc, #132]	; (106d4 <after_main+0x1b8>)
   10650:	58e3      	ldr	r3, [r4, r3]
   10652:	681b      	ldr	r3, [r3, #0]
   10654:	f648 0289 	movw	r2, #34953	; 0x8889
   10658:	f6c8 0288 	movt	r2, #34952	; 0x8888
   1065c:	fb83 1202 	smull	r1, r2, r3, r2
   10660:	441a      	add	r2, r3
   10662:	1151      	asrs	r1, r2, #5
   10664:	17da      	asrs	r2, r3, #31
   10666:	1a8a      	subs	r2, r1, r2
   10668:	213c      	movs	r1, #60	; 0x3c
   1066a:	fb01 f202 	mul.w	r2, r1, r2
   1066e:	1a9a      	subs	r2, r3, r2
   10670:	4b18      	ldr	r3, [pc, #96]	; (106d4 <after_main+0x1b8>)
   10672:	58e3      	ldr	r3, [r4, r3]
   10674:	601a      	str	r2, [r3, #0]
   10676:	68fb      	ldr	r3, [r7, #12]
   10678:	3301      	adds	r3, #1
   1067a:	60fb      	str	r3, [r7, #12]
   1067c:	4b19      	ldr	r3, [pc, #100]	; (106e4 <after_main+0x1c8>)
   1067e:	58e3      	ldr	r3, [r4, r3]
   10680:	681b      	ldr	r3, [r3, #0]
   10682:	68fa      	ldr	r2, [r7, #12]
   10684:	429a      	cmp	r2, r3
   10686:	f6ff af51 	blt.w	1052c <after_main+0x10>
   1068a:	4b0e      	ldr	r3, [pc, #56]	; (106c4 <after_main+0x1a8>)
   1068c:	58e3      	ldr	r3, [r4, r3]
   1068e:	6818      	ldr	r0, [r3, #0]
   10690:	4b0f      	ldr	r3, [pc, #60]	; (106d0 <after_main+0x1b4>)
   10692:	58e3      	ldr	r3, [r4, r3]
   10694:	6819      	ldr	r1, [r3, #0]
   10696:	4b0f      	ldr	r3, [pc, #60]	; (106d4 <after_main+0x1b8>)
   10698:	58e3      	ldr	r3, [r4, r3]
   1069a:	681d      	ldr	r5, [r3, #0]
   1069c:	4b0e      	ldr	r3, [pc, #56]	; (106d8 <after_main+0x1bc>)
   1069e:	58e3      	ldr	r3, [r4, r3]
   106a0:	681b      	ldr	r3, [r3, #0]
   106a2:	4a0e      	ldr	r2, [pc, #56]	; (106dc <after_main+0x1c0>)
   106a4:	58a2      	ldr	r2, [r4, r2]
   106a6:	6812      	ldr	r2, [r2, #0]
   106a8:	9201      	str	r2, [sp, #4]
   106aa:	9300      	str	r3, [sp, #0]
   106ac:	462b      	mov	r3, r5
   106ae:	460a      	mov	r2, r1
   106b0:	490d      	ldr	r1, [pc, #52]	; (106e8 <after_main+0x1cc>)
   106b2:	4479      	add	r1, pc
   106b4:	f004 fbfe 	bl	14eb4 <__fprintf>
   106b8:	bf00      	nop
   106ba:	3714      	adds	r7, #20
   106bc:	46bd      	mov	sp, r7
   106be:	bdf0      	pop	{r4, r5, r6, r7, pc}
   106c0:	00067ad8 	.word	0x00067ad8
   106c4:	00000080 	.word	0x00000080
   106c8:	0000009c 	.word	0x0000009c
   106cc:	00000064 	.word	0x00000064
   106d0:	00000058 	.word	0x00000058
   106d4:	00000090 	.word	0x00000090
   106d8:	00000050 	.word	0x00000050
   106dc:	000000ac 	.word	0x000000ac
   106e0:	0004164e 	.word	0x0004164e
   106e4:	00000024 	.word	0x00000024
   106e8:	0004154a 	.word	0x0004154a

000106ec <_sysy_starttime>:
   106ec:	b580      	push	{r7, lr}
   106ee:	b082      	sub	sp, #8
   106f0:	af00      	add	r7, sp, #0
   106f2:	6078      	str	r0, [r7, #4]
   106f4:	4b0a      	ldr	r3, [pc, #40]	; (10720 <_sysy_starttime+0x34>)
   106f6:	447b      	add	r3, pc
   106f8:	4a0a      	ldr	r2, [pc, #40]	; (10724 <_sysy_starttime+0x38>)
   106fa:	589a      	ldr	r2, [r3, r2]
   106fc:	6812      	ldr	r2, [r2, #0]
   106fe:	490a      	ldr	r1, [pc, #40]	; (10728 <_sysy_starttime+0x3c>)
   10700:	5859      	ldr	r1, [r3, r1]
   10702:	4608      	mov	r0, r1
   10704:	6879      	ldr	r1, [r7, #4]
   10706:	f840 1022 	str.w	r1, [r0, r2, lsl #2]
   1070a:	2100      	movs	r1, #0
   1070c:	4a07      	ldr	r2, [pc, #28]	; (1072c <_sysy_starttime+0x40>)
   1070e:	589b      	ldr	r3, [r3, r2]
   10710:	4618      	mov	r0, r3
   10712:	f010 fd43 	bl	2119c <__gettimeofday>
   10716:	bf00      	nop
   10718:	3708      	adds	r7, #8
   1071a:	46bd      	mov	sp, r7
   1071c:	bd80      	pop	{r7, pc}
   1071e:	bf00      	nop
   10720:	00067906 	.word	0x00067906
   10724:	00000024 	.word	0x00000024
   10728:	0000009c 	.word	0x0000009c
   1072c:	00000074 	.word	0x00000074

00010730 <_sysy_stoptime>:
   10730:	b5b0      	push	{r4, r5, r7, lr}
   10732:	b082      	sub	sp, #8
   10734:	af00      	add	r7, sp, #0
   10736:	6078      	str	r0, [r7, #4]
   10738:	4c7a      	ldr	r4, [pc, #488]	; (10924 <_sysy_stoptime+0x1f4>)
   1073a:	447c      	add	r4, pc
   1073c:	2100      	movs	r1, #0
   1073e:	4b7a      	ldr	r3, [pc, #488]	; (10928 <_sysy_stoptime+0x1f8>)
   10740:	58e3      	ldr	r3, [r4, r3]
   10742:	4618      	mov	r0, r3
   10744:	f010 fd2a 	bl	2119c <__gettimeofday>
   10748:	4b78      	ldr	r3, [pc, #480]	; (1092c <_sysy_stoptime+0x1fc>)
   1074a:	58e3      	ldr	r3, [r4, r3]
   1074c:	681b      	ldr	r3, [r3, #0]
   1074e:	4a78      	ldr	r2, [pc, #480]	; (10930 <_sysy_stoptime+0x200>)
   10750:	58a2      	ldr	r2, [r4, r2]
   10752:	4611      	mov	r1, r2
   10754:	687a      	ldr	r2, [r7, #4]
   10756:	f841 2023 	str.w	r2, [r1, r3, lsl #2]
   1075a:	4b74      	ldr	r3, [pc, #464]	; (1092c <_sysy_stoptime+0x1fc>)
   1075c:	58e3      	ldr	r3, [r4, r3]
   1075e:	681b      	ldr	r3, [r3, #0]
   10760:	4a74      	ldr	r2, [pc, #464]	; (10934 <_sysy_stoptime+0x204>)
   10762:	58a2      	ldr	r2, [r4, r2]
   10764:	f852 1023 	ldr.w	r1, [r2, r3, lsl #2]
   10768:	4b6f      	ldr	r3, [pc, #444]	; (10928 <_sysy_stoptime+0x1f8>)
   1076a:	58e3      	ldr	r3, [r4, r3]
   1076c:	681a      	ldr	r2, [r3, #0]
   1076e:	4b72      	ldr	r3, [pc, #456]	; (10938 <_sysy_stoptime+0x208>)
   10770:	58e3      	ldr	r3, [r4, r3]
   10772:	681b      	ldr	r3, [r3, #0]
   10774:	1ad2      	subs	r2, r2, r3
   10776:	f244 2340 	movw	r3, #16960	; 0x4240
   1077a:	f2c0 030f 	movt	r3, #15
   1077e:	fb03 f202 	mul.w	r2, r3, r2
   10782:	4b69      	ldr	r3, [pc, #420]	; (10928 <_sysy_stoptime+0x1f8>)
   10784:	58e3      	ldr	r3, [r4, r3]
   10786:	685b      	ldr	r3, [r3, #4]
   10788:	441a      	add	r2, r3
   1078a:	4b6b      	ldr	r3, [pc, #428]	; (10938 <_sysy_stoptime+0x208>)
   1078c:	58e3      	ldr	r3, [r4, r3]
   1078e:	685b      	ldr	r3, [r3, #4]
   10790:	1ad2      	subs	r2, r2, r3
   10792:	4b66      	ldr	r3, [pc, #408]	; (1092c <_sysy_stoptime+0x1fc>)
   10794:	58e3      	ldr	r3, [r4, r3]
   10796:	681b      	ldr	r3, [r3, #0]
   10798:	440a      	add	r2, r1
   1079a:	4966      	ldr	r1, [pc, #408]	; (10934 <_sysy_stoptime+0x204>)
   1079c:	5861      	ldr	r1, [r4, r1]
   1079e:	f841 2023 	str.w	r2, [r1, r3, lsl #2]
   107a2:	4b62      	ldr	r3, [pc, #392]	; (1092c <_sysy_stoptime+0x1fc>)
   107a4:	58e3      	ldr	r3, [r4, r3]
   107a6:	681b      	ldr	r3, [r3, #0]
   107a8:	4a64      	ldr	r2, [pc, #400]	; (1093c <_sysy_stoptime+0x20c>)
   107aa:	58a2      	ldr	r2, [r4, r2]
   107ac:	f852 0023 	ldr.w	r0, [r2, r3, lsl #2]
   107b0:	4b5e      	ldr	r3, [pc, #376]	; (1092c <_sysy_stoptime+0x1fc>)
   107b2:	58e3      	ldr	r3, [r4, r3]
   107b4:	681b      	ldr	r3, [r3, #0]
   107b6:	4a5f      	ldr	r2, [pc, #380]	; (10934 <_sysy_stoptime+0x204>)
   107b8:	58a2      	ldr	r2, [r4, r2]
   107ba:	f852 1023 	ldr.w	r1, [r2, r3, lsl #2]
   107be:	f64d 6383 	movw	r3, #56963	; 0xde83
   107c2:	f2c4 331b 	movt	r3, #17179	; 0x431b
   107c6:	fb81 2303 	smull	r2, r3, r1, r3
   107ca:	149a      	asrs	r2, r3, #18
   107cc:	17cb      	asrs	r3, r1, #31
   107ce:	1ad2      	subs	r2, r2, r3
   107d0:	4b56      	ldr	r3, [pc, #344]	; (1092c <_sysy_stoptime+0x1fc>)
   107d2:	58e3      	ldr	r3, [r4, r3]
   107d4:	681b      	ldr	r3, [r3, #0]
   107d6:	4402      	add	r2, r0
   107d8:	4958      	ldr	r1, [pc, #352]	; (1093c <_sysy_stoptime+0x20c>)
   107da:	5861      	ldr	r1, [r4, r1]
   107dc:	f841 2023 	str.w	r2, [r1, r3, lsl #2]
   107e0:	4b52      	ldr	r3, [pc, #328]	; (1092c <_sysy_stoptime+0x1fc>)
   107e2:	58e3      	ldr	r3, [r4, r3]
   107e4:	681b      	ldr	r3, [r3, #0]
   107e6:	4a53      	ldr	r2, [pc, #332]	; (10934 <_sysy_stoptime+0x204>)
   107e8:	58a2      	ldr	r2, [r4, r2]
   107ea:	f852 2023 	ldr.w	r2, [r2, r3, lsl #2]
   107ee:	4b4f      	ldr	r3, [pc, #316]	; (1092c <_sysy_stoptime+0x1fc>)
   107f0:	58e3      	ldr	r3, [r4, r3]
   107f2:	681d      	ldr	r5, [r3, #0]
   107f4:	f64d 6383 	movw	r3, #56963	; 0xde83
   107f8:	f2c4 331b 	movt	r3, #17179	; 0x431b
   107fc:	fb82 0103 	smull	r0, r1, r2, r3
   10800:	1489      	asrs	r1, r1, #18
   10802:	17d3      	asrs	r3, r2, #31
   10804:	1acb      	subs	r3, r1, r3
   10806:	f244 2140 	movw	r1, #16960	; 0x4240
   1080a:	f2c0 010f 	movt	r1, #15
   1080e:	fb01 f303 	mul.w	r3, r1, r3
   10812:	1ad3      	subs	r3, r2, r3
   10814:	4a47      	ldr	r2, [pc, #284]	; (10934 <_sysy_stoptime+0x204>)
   10816:	58a2      	ldr	r2, [r4, r2]
   10818:	f842 3025 	str.w	r3, [r2, r5, lsl #2]
   1081c:	4b43      	ldr	r3, [pc, #268]	; (1092c <_sysy_stoptime+0x1fc>)
   1081e:	58e3      	ldr	r3, [r4, r3]
   10820:	681b      	ldr	r3, [r3, #0]
   10822:	4a47      	ldr	r2, [pc, #284]	; (10940 <_sysy_stoptime+0x210>)
   10824:	58a2      	ldr	r2, [r4, r2]
   10826:	f852 0023 	ldr.w	r0, [r2, r3, lsl #2]
   1082a:	4b40      	ldr	r3, [pc, #256]	; (1092c <_sysy_stoptime+0x1fc>)
   1082c:	58e3      	ldr	r3, [r4, r3]
   1082e:	681b      	ldr	r3, [r3, #0]
   10830:	4a42      	ldr	r2, [pc, #264]	; (1093c <_sysy_stoptime+0x20c>)
   10832:	58a2      	ldr	r2, [r4, r2]
   10834:	f852 3023 	ldr.w	r3, [r2, r3, lsl #2]
   10838:	f648 0289 	movw	r2, #34953	; 0x8889
   1083c:	f6c8 0288 	movt	r2, #34952	; 0x8888
   10840:	fb83 1202 	smull	r1, r2, r3, r2
   10844:	441a      	add	r2, r3
   10846:	1152      	asrs	r2, r2, #5
   10848:	17db      	asrs	r3, r3, #31
   1084a:	1ad2      	subs	r2, r2, r3
   1084c:	4b37      	ldr	r3, [pc, #220]	; (1092c <_sysy_stoptime+0x1fc>)
   1084e:	58e3      	ldr	r3, [r4, r3]
   10850:	681b      	ldr	r3, [r3, #0]
   10852:	4402      	add	r2, r0
   10854:	493a      	ldr	r1, [pc, #232]	; (10940 <_sysy_stoptime+0x210>)
   10856:	5861      	ldr	r1, [r4, r1]
   10858:	f841 2023 	str.w	r2, [r1, r3, lsl #2]
   1085c:	4b33      	ldr	r3, [pc, #204]	; (1092c <_sysy_stoptime+0x1fc>)
   1085e:	58e3      	ldr	r3, [r4, r3]
   10860:	681b      	ldr	r3, [r3, #0]
   10862:	4a36      	ldr	r2, [pc, #216]	; (1093c <_sysy_stoptime+0x20c>)
   10864:	58a2      	ldr	r2, [r4, r2]
   10866:	f852 3023 	ldr.w	r3, [r2, r3, lsl #2]
   1086a:	4a30      	ldr	r2, [pc, #192]	; (1092c <_sysy_stoptime+0x1fc>)
   1086c:	58a2      	ldr	r2, [r4, r2]
   1086e:	6810      	ldr	r0, [r2, #0]
   10870:	f648 0289 	movw	r2, #34953	; 0x8889
   10874:	f6c8 0288 	movt	r2, #34952	; 0x8888
   10878:	fb83 1202 	smull	r1, r2, r3, r2
   1087c:	441a      	add	r2, r3
   1087e:	1151      	asrs	r1, r2, #5
   10880:	17da      	asrs	r2, r3, #31
   10882:	1a8a      	subs	r2, r1, r2
   10884:	213c      	movs	r1, #60	; 0x3c
   10886:	fb01 f202 	mul.w	r2, r1, r2
   1088a:	1a9a      	subs	r2, r3, r2
   1088c:	4b2b      	ldr	r3, [pc, #172]	; (1093c <_sysy_stoptime+0x20c>)
   1088e:	58e3      	ldr	r3, [r4, r3]
   10890:	f843 2020 	str.w	r2, [r3, r0, lsl #2]
   10894:	4b25      	ldr	r3, [pc, #148]	; (1092c <_sysy_stoptime+0x1fc>)
   10896:	58e3      	ldr	r3, [r4, r3]
   10898:	681b      	ldr	r3, [r3, #0]
   1089a:	4a2a      	ldr	r2, [pc, #168]	; (10944 <_sysy_stoptime+0x214>)
   1089c:	58a2      	ldr	r2, [r4, r2]
   1089e:	f852 0023 	ldr.w	r0, [r2, r3, lsl #2]
   108a2:	4b22      	ldr	r3, [pc, #136]	; (1092c <_sysy_stoptime+0x1fc>)
   108a4:	58e3      	ldr	r3, [r4, r3]
   108a6:	681b      	ldr	r3, [r3, #0]
   108a8:	4a25      	ldr	r2, [pc, #148]	; (10940 <_sysy_stoptime+0x210>)
   108aa:	58a2      	ldr	r2, [r4, r2]
   108ac:	f852 3023 	ldr.w	r3, [r2, r3, lsl #2]
   108b0:	f648 0289 	movw	r2, #34953	; 0x8889
   108b4:	f6c8 0288 	movt	r2, #34952	; 0x8888
   108b8:	fb83 1202 	smull	r1, r2, r3, r2
   108bc:	441a      	add	r2, r3
   108be:	1152      	asrs	r2, r2, #5
   108c0:	17db      	asrs	r3, r3, #31
   108c2:	1ad2      	subs	r2, r2, r3
   108c4:	4b19      	ldr	r3, [pc, #100]	; (1092c <_sysy_stoptime+0x1fc>)
   108c6:	58e3      	ldr	r3, [r4, r3]
   108c8:	681b      	ldr	r3, [r3, #0]
   108ca:	4402      	add	r2, r0
   108cc:	491d      	ldr	r1, [pc, #116]	; (10944 <_sysy_stoptime+0x214>)
   108ce:	5861      	ldr	r1, [r4, r1]
   108d0:	f841 2023 	str.w	r2, [r1, r3, lsl #2]
   108d4:	4b15      	ldr	r3, [pc, #84]	; (1092c <_sysy_stoptime+0x1fc>)
   108d6:	58e3      	ldr	r3, [r4, r3]
   108d8:	681b      	ldr	r3, [r3, #0]
   108da:	4a19      	ldr	r2, [pc, #100]	; (10940 <_sysy_stoptime+0x210>)
   108dc:	58a2      	ldr	r2, [r4, r2]
   108de:	f852 3023 	ldr.w	r3, [r2, r3, lsl #2]
   108e2:	4a12      	ldr	r2, [pc, #72]	; (1092c <_sysy_stoptime+0x1fc>)
   108e4:	58a2      	ldr	r2, [r4, r2]
   108e6:	6810      	ldr	r0, [r2, #0]
   108e8:	f648 0289 	movw	r2, #34953	; 0x8889
   108ec:	f6c8 0288 	movt	r2, #34952	; 0x8888
   108f0:	fb83 1202 	smull	r1, r2, r3, r2
   108f4:	441a      	add	r2, r3
   108f6:	1151      	asrs	r1, r2, #5
   108f8:	17da      	asrs	r2, r3, #31
   108fa:	1a8a      	subs	r2, r1, r2
   108fc:	213c      	movs	r1, #60	; 0x3c
   108fe:	fb01 f202 	mul.w	r2, r1, r2
   10902:	1a9a      	subs	r2, r3, r2
   10904:	4b0e      	ldr	r3, [pc, #56]	; (10940 <_sysy_stoptime+0x210>)
   10906:	58e3      	ldr	r3, [r4, r3]
   10908:	f843 2020 	str.w	r2, [r3, r0, lsl #2]
   1090c:	4b07      	ldr	r3, [pc, #28]	; (1092c <_sysy_stoptime+0x1fc>)
   1090e:	58e3      	ldr	r3, [r4, r3]
   10910:	681b      	ldr	r3, [r3, #0]
   10912:	3301      	adds	r3, #1
   10914:	4a05      	ldr	r2, [pc, #20]	; (1092c <_sysy_stoptime+0x1fc>)
   10916:	58a2      	ldr	r2, [r4, r2]
   10918:	6013      	str	r3, [r2, #0]
   1091a:	bf00      	nop
   1091c:	3708      	adds	r7, #8
   1091e:	46bd      	mov	sp, r7
   10920:	bdb0      	pop	{r4, r5, r7, pc}
   10922:	bf00      	nop
   10924:	000678c2 	.word	0x000678c2
   10928:	00000070 	.word	0x00000070
   1092c:	00000024 	.word	0x00000024
   10930:	00000064 	.word	0x00000064
   10934:	000000ac 	.word	0x000000ac
   10938:	00000074 	.word	0x00000074
   1093c:	00000050 	.word	0x00000050
   10940:	00000090 	.word	0x00000090
   10944:	00000058 	.word	0x00000058

00010948 <__libc_start_main>:
   10948:	b580      	push	{r7, lr}
   1094a:	f240 0400 	movw	r4, #0
   1094e:	b0ca      	sub	sp, #296	; 0x128
   10950:	f2c0 0400 	movt	r4, #0
   10954:	461d      	mov	r5, r3
   10956:	9003      	str	r0, [sp, #12]
   10958:	e9cd 1201 	strd	r1, r2, [sp, #4]
   1095c:	9b4e      	ldr	r3, [sp, #312]	; 0x138
   1095e:	b11c      	cbz	r4, 10968 <__libc_start_main+0x20>
   10960:	6824      	ldr	r4, [r4, #0]
   10962:	fab4 f484 	clz	r4, r4
   10966:	0964      	lsrs	r4, r4, #5
   10968:	9901      	ldr	r1, [sp, #4]
   1096a:	f648 7244 	movw	r2, #36676	; 0x8f44
   1096e:	f2c0 0207 	movt	r2, #7
   10972:	1c48      	adds	r0, r1, #1
   10974:	f249 61f0 	movw	r1, #38640	; 0x96f0
   10978:	6014      	str	r4, [r2, #0]
   1097a:	f2c0 0107 	movt	r1, #7
   1097e:	f647 72d4 	movw	r2, #32724	; 0x7fd4
   10982:	9c02      	ldr	r4, [sp, #8]
   10984:	f2c0 0207 	movt	r2, #7
   10988:	eb04 0080 	add.w	r0, r4, r0, lsl #2
   1098c:	6008      	str	r0, [r1, #0]
   1098e:	6013      	str	r3, [r2, #0]
   10990:	f850 3b04 	ldr.w	r3, [r0], #4
   10994:	2b00      	cmp	r3, #0
   10996:	d1fb      	bne.n	10990 <__libc_start_main+0x48>
   10998:	f012 ff7e 	bl	23898 <_dl_aux_init>
   1099c:	f64f 33bc 	movw	r3, #64444	; 0xfbbc
   109a0:	f2c0 0307 	movt	r3, #7
   109a4:	681b      	ldr	r3, [r3, #0]
   109a6:	b953      	cbnz	r3, 109be <__libc_start_main+0x76>
   109a8:	f240 0300 	movw	r3, #0
   109ac:	f2c0 0301 	movt	r3, #1
   109b0:	f04f 0201 	mov.w	r2, #1
   109b4:	2b00      	cmp	r3, #0
   109b6:	d042      	beq.n	10a3e <__libc_start_main+0xf6>
   109b8:	f012 0fff 	tst.w	r2, #255	; 0xff
   109bc:	d129      	bne.n	10a12 <__libc_start_main+0xca>
   109be:	f013 fc3d 	bl	2423c <__libc_init_secure>
   109c2:	f249 63f0 	movw	r3, #38640	; 0x96f0
   109c6:	f2c0 0307 	movt	r3, #7
   109ca:	f240 1458 	movw	r4, #344	; 0x158
   109ce:	f240 1768 	movw	r7, #360	; 0x168
   109d2:	f249 7608 	movw	r6, #38664	; 0x9708
   109d6:	6818      	ldr	r0, [r3, #0]
   109d8:	f2c0 0401 	movt	r4, #1
   109dc:	f2c0 0701 	movt	r7, #1
   109e0:	f012 fd5a 	bl	23498 <__tunables_init>
   109e4:	f2c0 0607 	movt	r6, #7
   109e8:	e006      	b.n	109f8 <__libc_start_main+0xb0>
   109ea:	f8d8 3000 	ldr.w	r3, [r8]
   109ee:	3408      	adds	r4, #8
   109f0:	6830      	ldr	r0, [r6, #0]
   109f2:	4798      	blx	r3
   109f4:	f8c8 0000 	str.w	r0, [r8]
   109f8:	42bc      	cmp	r4, r7
   109fa:	d230      	bcs.n	10a5e <__libc_start_main+0x116>
   109fc:	7923      	ldrb	r3, [r4, #4]
   109fe:	f8d4 8000 	ldr.w	r8, [r4]
   10a02:	2ba0      	cmp	r3, #160	; 0xa0
   10a04:	d0f1      	beq.n	109ea <__libc_start_main+0xa2>
   10a06:	f641 405c 	movw	r0, #7260	; 0x1c5c
   10a0a:	f2c0 0005 	movt	r0, #5
   10a0e:	f006 f8e9 	bl	16be4 <__libc_fatal>
   10a12:	f240 0300 	movw	r3, #0
   10a16:	f2c0 0301 	movt	r3, #1
   10a1a:	8d5a      	ldrh	r2, [r3, #42]	; 0x2a
   10a1c:	2a20      	cmp	r2, #32
   10a1e:	d010      	beq.n	10a42 <__libc_start_main+0xfa>
   10a20:	f641 43c4 	movw	r3, #7364	; 0x1cc4
   10a24:	f641 411c 	movw	r1, #7196	; 0x1c1c
   10a28:	f641 402c 	movw	r0, #7212	; 0x1c2c
   10a2c:	f2c0 0305 	movt	r3, #5
   10a30:	f2c0 0105 	movt	r1, #5
   10a34:	22b4      	movs	r2, #180	; 0xb4
   10a36:	f2c0 0005 	movt	r0, #5
   10a3a:	f000 fadf 	bl	10ffc <__assert_fail>
   10a3e:	461a      	mov	r2, r3
   10a40:	e7ba      	b.n	109b8 <__libc_start_main+0x70>
   10a42:	8d9c      	ldrh	r4, [r3, #44]	; 0x2c
   10a44:	f64f 31bc 	movw	r1, #64444	; 0xfbbc
   10a48:	69d8      	ldr	r0, [r3, #28]
   10a4a:	f2c0 0107 	movt	r1, #7
   10a4e:	f64f 32dc 	movw	r2, #64476	; 0xfbdc
   10a52:	f2c0 0207 	movt	r2, #7
   10a56:	4403      	add	r3, r0
   10a58:	600b      	str	r3, [r1, #0]
   10a5a:	6014      	str	r4, [r2, #0]
   10a5c:	e7af      	b.n	109be <__libc_start_main+0x76>
   10a5e:	f000 f903 	bl	10c68 <__libc_setup_tls>
   10a62:	f647 7190 	movw	r1, #32656	; 0x7f90
   10a66:	f2c0 0107 	movt	r1, #7
   10a6a:	f648 7244 	movw	r2, #36676	; 0x8f44
   10a6e:	f2c0 0207 	movt	r2, #7
   10a72:	f647 3398 	movw	r3, #31640	; 0x7b98
   10a76:	6808      	ldr	r0, [r1, #0]
   10a78:	f2c0 0307 	movt	r3, #7
   10a7c:	6811      	ldr	r1, [r2, #0]
   10a7e:	6802      	ldr	r2, [r0, #0]
   10a80:	f022 02ff 	bic.w	r2, r2, #255	; 0xff
   10a84:	601a      	str	r2, [r3, #0]
   10a86:	2900      	cmp	r1, #0
   10a88:	d075      	beq.n	10b76 <__libc_start_main+0x22e>
   10a8a:	f240 0300 	movw	r3, #0
   10a8e:	f2c0 0300 	movt	r3, #0
   10a92:	b10b      	cbz	r3, 10a98 <__libc_start_main+0x150>
   10a94:	f3af 8000 	nop.w
   10a98:	f647 7290 	movw	r2, #32656	; 0x7f90
   10a9c:	f2c0 0207 	movt	r2, #7
   10aa0:	f647 3398 	movw	r3, #31640	; 0x7b98
   10aa4:	f2c0 0307 	movt	r3, #7
   10aa8:	6812      	ldr	r2, [r2, #0]
   10aaa:	6852      	ldr	r2, [r2, #4]
   10aac:	605a      	str	r2, [r3, #4]
   10aae:	9b4d      	ldr	r3, [sp, #308]	; 0x134
   10ab0:	b123      	cbz	r3, 10abc <__libc_start_main+0x174>
   10ab2:	2200      	movs	r2, #0
   10ab4:	984d      	ldr	r0, [sp, #308]	; 0x134
   10ab6:	4611      	mov	r1, r2
   10ab8:	f003 ff82 	bl	149c0 <__cxa_atexit>
   10abc:	f249 63f0 	movw	r3, #38640	; 0x96f0
   10ac0:	f2c0 0307 	movt	r3, #7
   10ac4:	e9dd 0101 	ldrd	r0, r1, [sp, #4]
   10ac8:	681a      	ldr	r2, [r3, #0]
   10aca:	f013 fc43 	bl	24354 <__libc_init_first>
   10ace:	9b4c      	ldr	r3, [sp, #304]	; 0x130
   10ad0:	b123      	cbz	r3, 10adc <__libc_start_main+0x194>
   10ad2:	2200      	movs	r2, #0
   10ad4:	984c      	ldr	r0, [sp, #304]	; 0x130
   10ad6:	4611      	mov	r1, r2
   10ad8:	f003 ff72 	bl	149c0 <__cxa_atexit>
   10adc:	f647 73d8 	movw	r3, #32728	; 0x7fd8
   10ae0:	f2c0 0307 	movt	r3, #7
   10ae4:	681b      	ldr	r3, [r3, #0]
   10ae6:	b10b      	cbz	r3, 10aec <__libc_start_main+0x1a4>
   10ae8:	f000 f8ac 	bl	10c44 <__libc_check_standard_fds>
   10aec:	b13d      	cbz	r5, 10afe <__libc_start_main+0x1b6>
   10aee:	f249 63f0 	movw	r3, #38640	; 0x96f0
   10af2:	f2c0 0307 	movt	r3, #7
   10af6:	e9dd 0101 	ldrd	r0, r1, [sp, #4]
   10afa:	681a      	ldr	r2, [r3, #0]
   10afc:	47a8      	blx	r5
   10afe:	2100      	movs	r1, #0
   10b00:	4608      	mov	r0, r1
   10b02:	f012 fc27 	bl	23354 <_dl_debug_initialize>
   10b06:	a804      	add	r0, sp, #16
   10b08:	f003 fa92 	bl	14030 <_setjmp>
   10b0c:	b9a8      	cbnz	r0, 10b3a <__libc_start_main+0x1f2>
   10b0e:	ee1d 3f70 	mrc	15, 0, r3, cr13, cr0, {3}
   10b12:	f5a3 6398 	sub.w	r3, r3, #1216	; 0x4c0
   10b16:	f249 62f0 	movw	r2, #38640	; 0x96f0
   10b1a:	f2c0 0207 	movt	r2, #7
   10b1e:	e9d3 451f 	ldrd	r4, r5, [r3, #124]	; 0x7c
   10b22:	ae04      	add	r6, sp, #16
   10b24:	e9dd 0101 	ldrd	r0, r1, [sp, #4]
   10b28:	f8c3 6080 	str.w	r6, [r3, #128]	; 0x80
   10b2c:	6812      	ldr	r2, [r2, #0]
   10b2e:	9b03      	ldr	r3, [sp, #12]
   10b30:	e9cd 5446 	strd	r5, r4, [sp, #280]	; 0x118
   10b34:	4798      	blx	r3
   10b36:	f003 fe77 	bl	14828 <exit>
   10b3a:	f3af 8000 	nop.w
   10b3e:	f240 0300 	movw	r3, #0
   10b42:	f2c0 0300 	movt	r3, #0
   10b46:	681a      	ldr	r2, [r3, #0]
   10b48:	1e51      	subs	r1, r2, #1
   10b4a:	e853 0f00 	ldrex	r0, [r3]
   10b4e:	4290      	cmp	r0, r2
   10b50:	d105      	bne.n	10b5e <__libc_start_main+0x216>
   10b52:	e843 1400 	strex	r4, r1, [r3]
   10b56:	2c00      	cmp	r4, #0
   10b58:	d1f7      	bne.n	10b4a <__libc_start_main+0x202>
   10b5a:	f3bf 8f5b 	dmb	ish
   10b5e:	d1f2      	bne.n	10b46 <__libc_start_main+0x1fe>
   10b60:	2a01      	cmp	r2, #1
   10b62:	d006      	beq.n	10b72 <__libc_start_main+0x22a>
   10b64:	2200      	movs	r2, #0
   10b66:	2301      	movs	r3, #1
   10b68:	4610      	mov	r0, r2
   10b6a:	469c      	mov	ip, r3
   10b6c:	f000 f9b8 	bl	10ee0 <__libc_do_syscall>
   10b70:	e7fa      	b.n	10b68 <__libc_start_main+0x220>
   10b72:	2000      	movs	r0, #0
   10b74:	e7df      	b.n	10b36 <__libc_start_main+0x1ee>
   10b76:	f013 fb99 	bl	242ac <_dl_discover_osversion>
   10b7a:	2800      	cmp	r0, #0
   10b7c:	db17      	blt.n	10bae <__libc_start_main+0x266>
   10b7e:	f64f 33ec 	movw	r3, #64492	; 0xfbec
   10b82:	f2c0 0307 	movt	r3, #7
   10b86:	681b      	ldr	r3, [r3, #0]
   10b88:	b9bb      	cbnz	r3, 10bba <__libc_start_main+0x272>
   10b8a:	f64f 33ec 	movw	r3, #64492	; 0xfbec
   10b8e:	f2c0 0307 	movt	r3, #7
   10b92:	6018      	str	r0, [r3, #0]
   10b94:	f240 13ff 	movw	r3, #511	; 0x1ff
   10b98:	f2c0 0303 	movt	r3, #3
   10b9c:	4298      	cmp	r0, r3
   10b9e:	f73f af74 	bgt.w	10a8a <__libc_start_main+0x142>
   10ba2:	f641 4084 	movw	r0, #7300	; 0x1c84
   10ba6:	f2c0 0005 	movt	r0, #5
   10baa:	f006 f81b 	bl	16be4 <__libc_fatal>
   10bae:	f641 409c 	movw	r0, #7324	; 0x1c9c
   10bb2:	f2c0 0005 	movt	r0, #5
   10bb6:	f006 f815 	bl	16be4 <__libc_fatal>
   10bba:	4283      	cmp	r3, r0
   10bbc:	d9ea      	bls.n	10b94 <__libc_start_main+0x24c>
   10bbe:	e7e4      	b.n	10b8a <__libc_start_main+0x242>

00010bc0 <check_one_fd>:
   10bc0:	b5f0      	push	{r4, r5, r6, r7, lr}
   10bc2:	460c      	mov	r4, r1
   10bc4:	b09b      	sub	sp, #108	; 0x6c
   10bc6:	2101      	movs	r1, #1
   10bc8:	4605      	mov	r5, r0
   10bca:	f011 f831 	bl	21c30 <__libc_fcntl>
   10bce:	3001      	adds	r0, #1
   10bd0:	d001      	beq.n	10bd6 <check_one_fd+0x16>
   10bd2:	b01b      	add	sp, #108	; 0x6c
   10bd4:	bdf0      	pop	{r4, r5, r6, r7, pc}
   10bd6:	4b1a      	ldr	r3, [pc, #104]	; (10c40 <check_one_fd+0x80>)
   10bd8:	ee1d 2f70 	mrc	15, 0, r2, cr13, cr0, {3}
   10bdc:	447b      	add	r3, pc
   10bde:	681b      	ldr	r3, [r3, #0]
   10be0:	58d3      	ldr	r3, [r2, r3]
   10be2:	2b09      	cmp	r3, #9
   10be4:	d1f5      	bne.n	10bd2 <check_one_fd+0x12>
   10be6:	f5b4 4f00 	cmp.w	r4, #32768	; 0x8000
   10bea:	4621      	mov	r1, r4
   10bec:	f04f 0200 	mov.w	r2, #0
   10bf0:	bf0b      	itete	eq
   10bf2:	f641 40e4 	movweq	r0, #7396	; 0x1ce4
   10bf6:	f641 40d8 	movwne	r0, #7384	; 0x1cd8
   10bfa:	f2c0 0005 	movteq	r0, #5
   10bfe:	f2c0 0005 	movtne	r0, #5
   10c02:	bf07      	ittee	eq
   10c04:	f240 1603 	movweq	r6, #259	; 0x103
   10c08:	2700      	moveq	r7, #0
   10c0a:	f240 1607 	movwne	r6, #263	; 0x107
   10c0e:	2700      	movne	r7, #0
   10c10:	f010 feb8 	bl	21984 <__open_nocancel>
   10c14:	4285      	cmp	r5, r0
   10c16:	d111      	bne.n	10c3c <check_one_fd+0x7c>
   10c18:	4629      	mov	r1, r5
   10c1a:	466a      	mov	r2, sp
   10c1c:	2003      	movs	r0, #3
   10c1e:	f010 fe2d 	bl	2187c <___fxstat64>
   10c22:	b958      	cbnz	r0, 10c3c <check_one_fd+0x7c>
   10c24:	9b04      	ldr	r3, [sp, #16]
   10c26:	f403 4370 	and.w	r3, r3, #61440	; 0xf000
   10c2a:	f5b3 5f00 	cmp.w	r3, #8192	; 0x2000
   10c2e:	d105      	bne.n	10c3c <check_one_fd+0x7c>
   10c30:	e9dd 2308 	ldrd	r2, r3, [sp, #32]
   10c34:	42bb      	cmp	r3, r7
   10c36:	bf08      	it	eq
   10c38:	42b2      	cmpeq	r2, r6
   10c3a:	d0ca      	beq.n	10bd2 <check_one_fd+0x12>
   10c3c:	deff      	udf	#255	; 0xff
   10c3e:	bf00      	nop
   10c40:	00067480 	.word	0x00067480

00010c44 <__libc_check_standard_fds>:
   10c44:	b508      	push	{r3, lr}
   10c46:	f248 0101 	movw	r1, #32769	; 0x8001
   10c4a:	2000      	movs	r0, #0
   10c4c:	f7ff ffb8 	bl	10bc0 <check_one_fd>
   10c50:	f44f 4100 	mov.w	r1, #32768	; 0x8000
   10c54:	2001      	movs	r0, #1
   10c56:	f7ff ffb3 	bl	10bc0 <check_one_fd>
   10c5a:	f44f 4100 	mov.w	r1, #32768	; 0x8000
   10c5e:	2002      	movs	r0, #2
   10c60:	e8bd 4008 	ldmia.w	sp!, {r3, lr}
   10c64:	e7ac      	b.n	10bc0 <check_one_fd>
   10c66:	bf00      	nop

00010c68 <__libc_setup_tls>:
   10c68:	f64f 32bc 	movw	r2, #64444	; 0xfbbc
   10c6c:	f2c0 0207 	movt	r2, #7
   10c70:	f648 63e0 	movw	r3, #36576	; 0x8ee0
   10c74:	f2c0 0307 	movt	r3, #7
   10c78:	6812      	ldr	r2, [r2, #0]
   10c7a:	e92d 4ff0 	stmdb	sp!, {r4, r5, r6, r7, r8, r9, sl, fp, lr}
   10c7e:	b087      	sub	sp, #28
   10c80:	681f      	ldr	r7, [r3, #0]
   10c82:	2a00      	cmp	r2, #0
   10c84:	f000 80ba 	beq.w	10dfc <__libc_setup_tls+0x194>
   10c88:	f64f 33dc 	movw	r3, #64476	; 0xfbdc
   10c8c:	f2c0 0307 	movt	r3, #7
   10c90:	6819      	ldr	r1, [r3, #0]
   10c92:	eb02 1141 	add.w	r1, r2, r1, lsl #5
   10c96:	428a      	cmp	r2, r1
   10c98:	d303      	bcc.n	10ca2 <__libc_setup_tls+0x3a>
   10c9a:	e022      	b.n	10ce2 <__libc_setup_tls+0x7a>
   10c9c:	3220      	adds	r2, #32
   10c9e:	428a      	cmp	r2, r1
   10ca0:	d21f      	bcs.n	10ce2 <__libc_setup_tls+0x7a>
   10ca2:	6813      	ldr	r3, [r2, #0]
   10ca4:	2b07      	cmp	r3, #7
   10ca6:	d1f9      	bne.n	10c9c <__libc_setup_tls+0x34>
   10ca8:	6839      	ldr	r1, [r7, #0]
   10caa:	6893      	ldr	r3, [r2, #8]
   10cac:	69d4      	ldr	r4, [r2, #28]
   10cae:	18cb      	adds	r3, r1, r3
   10cb0:	9302      	str	r3, [sp, #8]
   10cb2:	e9d2 3b04 	ldrd	r3, fp, [r2, #16]
   10cb6:	2c10      	cmp	r4, #16
   10cb8:	9301      	str	r3, [sp, #4]
   10cba:	f200 80a8 	bhi.w	10e0e <__libc_setup_tls+0x1a6>
   10cbe:	2c00      	cmp	r4, #0
   10cc0:	f000 80aa 	beq.w	10e18 <__libc_setup_tls+0x1b0>
   10cc4:	260f      	movs	r6, #15
   10cc6:	f06f 030f 	mvn.w	r3, #15
   10cca:	9305      	str	r3, [sp, #20]
   10ccc:	2310      	movs	r3, #16
   10cce:	9303      	str	r3, [sp, #12]
   10cd0:	4621      	mov	r1, r4
   10cd2:	1de0      	adds	r0, r4, #7
   10cd4:	f03e fe54 	bl	4f980 <__udivsi3>
   10cd8:	46a1      	mov	r9, r4
   10cda:	fb04 fa00 	mul.w	sl, r4, r0
   10cde:	4651      	mov	r1, sl
   10ce0:	e00e      	b.n	10d00 <__libc_setup_tls+0x98>
   10ce2:	2400      	movs	r4, #0
   10ce4:	f04f 0a08 	mov.w	sl, #8
   10ce8:	4651      	mov	r1, sl
   10cea:	46a3      	mov	fp, r4
   10cec:	260f      	movs	r6, #15
   10cee:	e9cd 4401 	strd	r4, r4, [sp, #4]
   10cf2:	f04f 0901 	mov.w	r9, #1
   10cf6:	f06f 030f 	mvn.w	r3, #15
   10cfa:	9305      	str	r3, [sp, #20]
   10cfc:	2310      	movs	r3, #16
   10cfe:	9303      	str	r3, [sp, #12]
   10d00:	f248 383c 	movw	r8, #33596	; 0x833c
   10d04:	f2c0 0807 	movt	r8, #7
   10d08:	9b03      	ldr	r3, [sp, #12]
   10d0a:	f64f 1550 	movw	r5, #63824	; 0xf950
   10d0e:	f8d8 2000 	ldr.w	r2, [r8]
   10d12:	f2c0 0507 	movt	r5, #7
   10d16:	9104      	str	r1, [sp, #16]
   10d18:	3508      	adds	r5, #8
   10d1a:	f502 6098 	add.w	r0, r2, #1216	; 0x4c0
   10d1e:	4450      	add	r0, sl
   10d20:	4458      	add	r0, fp
   10d22:	4418      	add	r0, r3
   10d24:	f011 fb30 	bl	22388 <__sbrk>
   10d28:	9904      	ldr	r1, [sp, #16]
   10d2a:	233e      	movs	r3, #62	; 0x3e
   10d2c:	f845 3c08 	str.w	r3, [r5, #-8]
   10d30:	2300      	movs	r3, #0
   10d32:	60eb      	str	r3, [r5, #12]
   10d34:	9b05      	ldr	r3, [sp, #20]
   10d36:	f8c7 123c 	str.w	r1, [r7, #572]	; 0x23c
   10d3a:	e9dd 2101 	ldrd	r2, r1, [sp, #4]
   10d3e:	f500 6098 	add.w	r0, r0, #1216	; 0x4c0
   10d42:	4406      	add	r6, r0
   10d44:	401e      	ands	r6, r3
   10d46:	eb06 000a 	add.w	r0, r6, sl
   10d4a:	60a8      	str	r0, [r5, #8]
   10d4c:	f7ff ea14 	blx	10178 <__rel_iplt_end+0x10>
   10d50:	4630      	mov	r0, r6
   10d52:	6035      	str	r5, [r6, #0]
   10d54:	f04f 0c05 	mov.w	ip, #5
   10d58:	f2c0 0c0f 	movt	ip, #15
   10d5c:	f000 f8c0 	bl	10ee0 <__libc_do_syscall>
   10d60:	f510 5f80 	cmn.w	r0, #4096	; 0x1000
   10d64:	d905      	bls.n	10d72 <__libc_setup_tls+0x10a>
   10d66:	f641 40f0 	movw	r0, #7408	; 0x1cf0
   10d6a:	f2c0 0005 	movt	r0, #5
   10d6e:	f005 ff39 	bl	16be4 <__libc_fatal>
   10d72:	9b02      	ldr	r3, [sp, #8]
   10d74:	f249 12a4 	movw	r2, #37284	; 0x91a4
   10d78:	f64f 3050 	movw	r0, #64336	; 0xfb50
   10d7c:	f2c0 0207 	movt	r2, #7
   10d80:	f2c0 0007 	movt	r0, #7
   10d84:	f64f 114c 	movw	r1, #63820	; 0xf94c
   10d88:	f8c7 3228 	str.w	r3, [r7, #552]	; 0x228
   10d8c:	f2c0 0107 	movt	r1, #7
   10d90:	9b01      	ldr	r3, [sp, #4]
   10d92:	2540      	movs	r5, #64	; 0x40
   10d94:	6157      	str	r7, [r2, #20]
   10d96:	6002      	str	r2, [r0, #0]
   10d98:	6015      	str	r5, [r2, #0]
   10d9a:	2201      	movs	r2, #1
   10d9c:	f8c7 4234 	str.w	r4, [r7, #564]	; 0x234
   10da0:	f8c7 b230 	str.w	fp, [r7, #560]	; 0x230
   10da4:	f8c7 322c 	str.w	r3, [r7, #556]	; 0x22c
   10da8:	600a      	str	r2, [r1, #0]
   10daa:	f8c7 2240 	str.w	r2, [r7, #576]	; 0x240
   10dae:	b11c      	cbz	r4, 10db8 <__libc_setup_tls+0x150>
   10db0:	eb0b 0304 	add.w	r3, fp, r4
   10db4:	f103 3bff 	add.w	fp, r3, #4294967295	; 0xffffffff
   10db8:	4649      	mov	r1, r9
   10dba:	4658      	mov	r0, fp
   10dbc:	f03e fde0 	bl	4f980 <__udivsi3>
   10dc0:	f8d8 3000 	ldr.w	r3, [r8]
   10dc4:	9d03      	ldr	r5, [sp, #12]
   10dc6:	f64f 1244 	movw	r2, #63812	; 0xf944
   10dca:	330f      	adds	r3, #15
   10dcc:	f2c0 0207 	movt	r2, #7
   10dd0:	f64f 1448 	movw	r4, #63816	; 0xf948
   10dd4:	f64f 315c 	movw	r1, #64348	; 0xfb5c
   10dd8:	f2c0 0407 	movt	r4, #7
   10ddc:	f2c0 0107 	movt	r1, #7
   10de0:	6025      	str	r5, [r4, #0]
   10de2:	2401      	movs	r4, #1
   10de4:	600c      	str	r4, [r1, #0]
   10de6:	fb09 a000 	mla	r0, r9, r0, sl
   10dea:	4403      	add	r3, r0
   10dec:	f023 030f 	bic.w	r3, r3, #15
   10df0:	f8c8 3000 	str.w	r3, [r8]
   10df4:	6010      	str	r0, [r2, #0]
   10df6:	b007      	add	sp, #28
   10df8:	e8bd 8ff0 	ldmia.w	sp!, {r4, r5, r6, r7, r8, r9, sl, fp, pc}
   10dfc:	f04f 0a08 	mov.w	sl, #8
   10e00:	4614      	mov	r4, r2
   10e02:	e9cd 2201 	strd	r2, r2, [sp, #4]
   10e06:	4693      	mov	fp, r2
   10e08:	4651      	mov	r1, sl
   10e0a:	260f      	movs	r6, #15
   10e0c:	e771      	b.n	10cf2 <__libc_setup_tls+0x8a>
   10e0e:	4263      	negs	r3, r4
   10e10:	1e66      	subs	r6, r4, #1
   10e12:	9305      	str	r3, [sp, #20]
   10e14:	9403      	str	r4, [sp, #12]
   10e16:	e75b      	b.n	10cd0 <__libc_setup_tls+0x68>
   10e18:	f04f 0a08 	mov.w	sl, #8
   10e1c:	260f      	movs	r6, #15
   10e1e:	4651      	mov	r1, sl
   10e20:	e767      	b.n	10cf2 <__libc_setup_tls+0x8a>
   10e22:	bf00      	nop

00010e24 <__tls_get_addr>:
   10e24:	ee1d 3f70 	mrc	15, 0, r3, cr13, cr0, {3}
   10e28:	6842      	ldr	r2, [r0, #4]
   10e2a:	681b      	ldr	r3, [r3, #0]
   10e2c:	6898      	ldr	r0, [r3, #8]
   10e2e:	4410      	add	r0, r2
   10e30:	4770      	bx	lr
   10e32:	bf00      	nop

00010e34 <__libc_csu_init>:
   10e34:	e92d 43f8 	stmdb	sp!, {r3, r4, r5, r6, r7, r8, r9, lr}
   10e38:	f647 3984 	movw	r9, #31620	; 0x7b84
   10e3c:	f647 3584 	movw	r5, #31620	; 0x7b84
   10e40:	f2c0 0907 	movt	r9, #7
   10e44:	f2c0 0507 	movt	r5, #7
   10e48:	4606      	mov	r6, r0
   10e4a:	eba9 0905 	sub.w	r9, r9, r5
   10e4e:	460f      	mov	r7, r1
   10e50:	4690      	mov	r8, r2
   10e52:	ea5f 09a9 	movs.w	r9, r9, asr #2
   10e56:	d009      	beq.n	10e6c <__libc_csu_init+0x38>
   10e58:	2400      	movs	r4, #0
   10e5a:	3401      	adds	r4, #1
   10e5c:	f855 3b04 	ldr.w	r3, [r5], #4
   10e60:	4642      	mov	r2, r8
   10e62:	4639      	mov	r1, r7
   10e64:	4630      	mov	r0, r6
   10e66:	4798      	blx	r3
   10e68:	45a1      	cmp	r9, r4
   10e6a:	d1f6      	bne.n	10e5a <__libc_csu_init+0x26>
   10e6c:	f647 398c 	movw	r9, #31628	; 0x7b8c
   10e70:	f647 3584 	movw	r5, #31620	; 0x7b84
   10e74:	f2c0 0907 	movt	r9, #7
   10e78:	f2c0 0507 	movt	r5, #7
   10e7c:	eba9 0905 	sub.w	r9, r9, r5
   10e80:	f7ff e972 	blx	10168 <__rel_iplt_end>
   10e84:	ea5f 09a9 	movs.w	r9, r9, asr #2
   10e88:	d009      	beq.n	10e9e <__libc_csu_init+0x6a>
   10e8a:	2400      	movs	r4, #0
   10e8c:	3401      	adds	r4, #1
   10e8e:	f855 3b04 	ldr.w	r3, [r5], #4
   10e92:	4642      	mov	r2, r8
   10e94:	4639      	mov	r1, r7
   10e96:	4630      	mov	r0, r6
   10e98:	4798      	blx	r3
   10e9a:	45a1      	cmp	r9, r4
   10e9c:	d1f6      	bne.n	10e8c <__libc_csu_init+0x58>
   10e9e:	e8bd 83f8 	ldmia.w	sp!, {r3, r4, r5, r6, r7, r8, r9, pc}
   10ea2:	bf00      	nop

00010ea4 <__libc_csu_fini>:
   10ea4:	b538      	push	{r3, r4, r5, lr}
   10ea6:	f647 3398 	movw	r3, #31640	; 0x7b98
   10eaa:	f647 358c 	movw	r5, #31628	; 0x7b8c
   10eae:	f2c0 0307 	movt	r3, #7
   10eb2:	f2c0 0507 	movt	r5, #7
   10eb6:	1b5b      	subs	r3, r3, r5
   10eb8:	109b      	asrs	r3, r3, #2
   10eba:	b143      	cbz	r3, 10ece <__libc_csu_fini+0x2a>
   10ebc:	1e5c      	subs	r4, r3, #1
   10ebe:	eb05 0583 	add.w	r5, r5, r3, lsl #2
   10ec2:	f855 3d04 	ldr.w	r3, [r5, #-4]!
   10ec6:	3c01      	subs	r4, #1
   10ec8:	4798      	blx	r3
   10eca:	1c63      	adds	r3, r4, #1
   10ecc:	d1f9      	bne.n	10ec2 <__libc_csu_fini+0x1e>
   10ece:	e8bd 4038 	ldmia.w	sp!, {r3, r4, r5, lr}
   10ed2:	f040 ba29 	b.w	51328 <___fini_from_thumb>
   10ed6:	bf00      	nop
	...

00010ee0 <__libc_do_syscall>:
   10ee0:	b580      	push	{r7, lr}
   10ee2:	4667      	mov	r7, ip
   10ee4:	df00      	svc	0
   10ee6:	bd80      	pop	{r7, pc}

00010ee8 <__assert_fail_base>:
   10ee8:	f647 3498 	movw	r4, #31640	; 0x7b98
   10eec:	f2c0 0407 	movt	r4, #7
   10ef0:	b580      	push	{r7, lr}
   10ef2:	b08a      	sub	sp, #40	; 0x28
   10ef4:	f8d4 e000 	ldr.w	lr, [r4]
   10ef8:	f240 0c00 	movw	ip, #0
   10efc:	f2c0 0c00 	movt	ip, #0
   10f00:	4607      	mov	r7, r0
   10f02:	4688      	mov	r8, r1
   10f04:	4615      	mov	r5, r2
   10f06:	461e      	mov	r6, r3
   10f08:	9c0c      	ldr	r4, [sp, #48]	; 0x30
   10f0a:	f8cd e024 	str.w	lr, [sp, #36]	; 0x24
   10f0e:	f1bc 0f00 	cmp.w	ip, #0
   10f12:	d003      	beq.n	10f1c <__assert_fail_base+0x34>
   10f14:	2100      	movs	r1, #0
   10f16:	2001      	movs	r0, #1
   10f18:	f3af 8000 	nop.w
   10f1c:	f648 4318 	movw	r3, #35864	; 0x8c18
   10f20:	f2c0 0307 	movt	r3, #7
   10f24:	f641 5100 	movw	r1, #7424	; 0x1d00
   10f28:	f645 6098 	movw	r0, #24216	; 0x5e98
   10f2c:	681a      	ldr	r2, [r3, #0]
   10f2e:	f2c0 0105 	movt	r1, #5
   10f32:	f2c0 0006 	movt	r0, #6
   10f36:	7813      	ldrb	r3, [r2, #0]
   10f38:	2b00      	cmp	r3, #0
   10f3a:	bf14      	ite	ne
   10f3c:	460b      	movne	r3, r1
   10f3e:	4603      	moveq	r3, r0
   10f40:	2c00      	cmp	r4, #0
   10f42:	d053      	beq.n	10fec <__assert_fail_base+0x104>
   10f44:	e9cd 1803 	strd	r1, r8, [sp, #12]
   10f48:	a807      	add	r0, sp, #28
   10f4a:	9402      	str	r4, [sp, #8]
   10f4c:	4639      	mov	r1, r7
   10f4e:	9601      	str	r6, [sp, #4]
   10f50:	ac08      	add	r4, sp, #32
   10f52:	9500      	str	r5, [sp, #0]
   10f54:	9405      	str	r4, [sp, #20]
   10f56:	f003 ffe9 	bl	14f2c <___asprintf>
   10f5a:	2800      	cmp	r0, #0
   10f5c:	db3d      	blt.n	10fda <__assert_fail_base+0xf2>
   10f5e:	9a07      	ldr	r2, [sp, #28]
   10f60:	f645 416c 	movw	r1, #23660	; 0x5c6c
   10f64:	2000      	movs	r0, #0
   10f66:	f2c0 0106 	movt	r1, #6
   10f6a:	f004 f901 	bl	15170 <__fxprintf>
   10f6e:	f248 7354 	movw	r3, #34644	; 0x8754
   10f72:	f2c0 0307 	movt	r3, #7
   10f76:	2400      	movs	r4, #0
   10f78:	f04f 35ff 	mov.w	r5, #4294967295	; 0xffffffff
   10f7c:	6818      	ldr	r0, [r3, #0]
   10f7e:	f004 fa9d 	bl	154bc <_IO_fflush>
   10f82:	f648 4320 	movw	r3, #35872	; 0x8c20
   10f86:	f2c0 0307 	movt	r3, #7
   10f8a:	9908      	ldr	r1, [sp, #32]
   10f8c:	4620      	mov	r0, r4
   10f8e:	681a      	ldr	r2, [r3, #0]
   10f90:	2322      	movs	r3, #34	; 0x22
   10f92:	9401      	str	r4, [sp, #4]
   10f94:	4411      	add	r1, r2
   10f96:	4252      	negs	r2, r2
   10f98:	4011      	ands	r1, r2
   10f9a:	9500      	str	r5, [sp, #0]
   10f9c:	2203      	movs	r2, #3
   10f9e:	9108      	str	r1, [sp, #32]
   10fa0:	f011 fa5e 	bl	22460 <__mmap>
   10fa4:	42a8      	cmp	r0, r5
   10fa6:	4604      	mov	r4, r0
   10fa8:	d012      	beq.n	10fd0 <__assert_fail_base+0xe8>
   10faa:	9b08      	ldr	r3, [sp, #32]
   10fac:	9907      	ldr	r1, [sp, #28]
   10fae:	f840 3b04 	str.w	r3, [r0], #4
   10fb2:	f00d fe6d 	bl	1ec90 <strcpy>
   10fb6:	f249 4360 	movw	r3, #37984	; 0x9460
   10fba:	f2c0 0307 	movt	r3, #7
   10fbe:	e853 0f00 	ldrex	r0, [r3]
   10fc2:	e843 4200 	strex	r2, r4, [r3]
   10fc6:	2a00      	cmp	r2, #0
   10fc8:	d1f9      	bne.n	10fbe <__assert_fail_base+0xd6>
   10fca:	f3bf 8f5b 	dmb	ish
   10fce:	b980      	cbnz	r0, 10ff2 <__assert_fail_base+0x10a>
   10fd0:	9807      	ldr	r0, [sp, #28]
   10fd2:	f00c fe39 	bl	1dc48 <__free>
   10fd6:	f003 f82f 	bl	14038 <abort>
   10fda:	f641 5130 	movw	r1, #7472	; 0x1d30
   10fde:	2212      	movs	r2, #18
   10fe0:	f2c0 0105 	movt	r1, #5
   10fe4:	2002      	movs	r0, #2
   10fe6:	f010 fd5f 	bl	21aa8 <__libc_write>
   10fea:	e7f4      	b.n	10fd6 <__assert_fail_base+0xee>
   10fec:	4604      	mov	r4, r0
   10fee:	4601      	mov	r1, r0
   10ff0:	e7a8      	b.n	10f44 <__assert_fail_base+0x5c>
   10ff2:	6801      	ldr	r1, [r0, #0]
   10ff4:	f011 fa8c 	bl	22510 <__munmap>
   10ff8:	e7ea      	b.n	10fd0 <__assert_fail_base+0xe8>
   10ffa:	bf00      	nop

00010ffc <__assert_fail>:
   10ffc:	b580      	push	{r7, lr}
   10ffe:	b082      	sub	sp, #8
   11000:	4604      	mov	r4, r0
   11002:	460d      	mov	r5, r1
   11004:	4616      	mov	r6, r2
   11006:	f641 5104 	movw	r1, #7428	; 0x1d04
   1100a:	2205      	movs	r2, #5
   1100c:	f2c0 0105 	movt	r1, #5
   11010:	f640 30dc 	movw	r0, #3036	; 0xbdc
   11014:	f2c0 0006 	movt	r0, #6
   11018:	461f      	mov	r7, r3
   1101a:	f000 f807 	bl	1102c <__dcgettext>
   1101e:	9700      	str	r7, [sp, #0]
   11020:	4633      	mov	r3, r6
   11022:	462a      	mov	r2, r5
   11024:	4621      	mov	r1, r4
   11026:	f7ff ff5f 	bl	10ee8 <__assert_fail_base>
   1102a:	bf00      	nop

0001102c <__dcgettext>:
   1102c:	b500      	push	{lr}
   1102e:	b083      	sub	sp, #12
   11030:	2300      	movs	r3, #0
   11032:	e9cd 3200 	strd	r3, r2, [sp]
   11036:	461a      	mov	r2, r3
   11038:	f000 fc92 	bl	11960 <__dcigettext>
   1103c:	b003      	add	sp, #12
   1103e:	f85d fb04 	ldr.w	pc, [sp], #4
   11042:	bf00      	nop

00011044 <plural_eval>:
   11044:	b5f8      	push	{r3, r4, r5, r6, r7, lr}
   11046:	4604      	mov	r4, r0
   11048:	460e      	mov	r6, r1
   1104a:	6823      	ldr	r3, [r4, #0]
   1104c:	2b03      	cmp	r3, #3
   1104e:	d832      	bhi.n	110b6 <plural_eval+0x72>
   11050:	e8df f003 	tbb	[pc, r3]
   11054:	020d2029 	.word	0x020d2029
   11058:	68a0      	ldr	r0, [r4, #8]
   1105a:	4631      	mov	r1, r6
   1105c:	f7ff fff2 	bl	11044 <plural_eval>
   11060:	2800      	cmp	r0, #0
   11062:	bf14      	ite	ne
   11064:	2303      	movne	r3, #3
   11066:	2304      	moveq	r3, #4
   11068:	f854 4023 	ldr.w	r4, [r4, r3, lsl #2]
   1106c:	e7ed      	b.n	1104a <plural_eval+0x6>
   1106e:	4631      	mov	r1, r6
   11070:	68a0      	ldr	r0, [r4, #8]
   11072:	f7ff ffe7 	bl	11044 <plural_eval>
   11076:	6867      	ldr	r7, [r4, #4]
   11078:	2f0f      	cmp	r7, #15
   1107a:	4605      	mov	r5, r0
   1107c:	d01d      	beq.n	110ba <plural_eval+0x76>
   1107e:	2f0e      	cmp	r7, #14
   11080:	d11f      	bne.n	110c2 <plural_eval+0x7e>
   11082:	b170      	cbz	r0, 110a2 <plural_eval+0x5e>
   11084:	4631      	mov	r1, r6
   11086:	68e0      	ldr	r0, [r4, #12]
   11088:	f7ff ffdc 	bl	11044 <plural_eval>
   1108c:	1c05      	adds	r5, r0, #0
   1108e:	bf18      	it	ne
   11090:	2501      	movne	r5, #1
   11092:	e006      	b.n	110a2 <plural_eval+0x5e>
   11094:	4631      	mov	r1, r6
   11096:	68a0      	ldr	r0, [r4, #8]
   11098:	f7ff ffd4 	bl	11044 <plural_eval>
   1109c:	fab0 f580 	clz	r5, r0
   110a0:	096d      	lsrs	r5, r5, #5
   110a2:	4628      	mov	r0, r5
   110a4:	bdf8      	pop	{r3, r4, r5, r6, r7, pc}
   110a6:	6863      	ldr	r3, [r4, #4]
   110a8:	4635      	mov	r5, r6
   110aa:	2b00      	cmp	r3, #0
   110ac:	d0f9      	beq.n	110a2 <plural_eval+0x5e>
   110ae:	2b01      	cmp	r3, #1
   110b0:	bf08      	it	eq
   110b2:	68a5      	ldreq	r5, [r4, #8]
   110b4:	d0f5      	beq.n	110a2 <plural_eval+0x5e>
   110b6:	2500      	movs	r5, #0
   110b8:	e7f3      	b.n	110a2 <plural_eval+0x5e>
   110ba:	2800      	cmp	r0, #0
   110bc:	d0e2      	beq.n	11084 <plural_eval+0x40>
   110be:	2501      	movs	r5, #1
   110c0:	e7ef      	b.n	110a2 <plural_eval+0x5e>
   110c2:	4631      	mov	r1, r6
   110c4:	68e0      	ldr	r0, [r4, #12]
   110c6:	3f03      	subs	r7, #3
   110c8:	f7ff ffbc 	bl	11044 <plural_eval>
   110cc:	2f0a      	cmp	r7, #10
   110ce:	d8f2      	bhi.n	110b6 <plural_eval+0x72>
   110d0:	e8df f007 	tbb	[pc, r7]
   110d4:	25272d33 	.word	0x25272d33
   110d8:	14191e23 	.word	0x14191e23
   110dc:	0a0f      	.short	0x0a0f
   110de:	06          	.byte	0x06
   110df:	00          	.byte	0x00
   110e0:	1a2d      	subs	r5, r5, r0
   110e2:	bf18      	it	ne
   110e4:	2501      	movne	r5, #1
   110e6:	e7dc      	b.n	110a2 <plural_eval+0x5e>
   110e8:	1a2d      	subs	r5, r5, r0
   110ea:	fab5 f585 	clz	r5, r5
   110ee:	096d      	lsrs	r5, r5, #5
   110f0:	e7d7      	b.n	110a2 <plural_eval+0x5e>
   110f2:	4285      	cmp	r5, r0
   110f4:	bf34      	ite	cc
   110f6:	2500      	movcc	r5, #0
   110f8:	2501      	movcs	r5, #1
   110fa:	e7d2      	b.n	110a2 <plural_eval+0x5e>
   110fc:	4285      	cmp	r5, r0
   110fe:	bf8c      	ite	hi
   11100:	2500      	movhi	r5, #0
   11102:	2501      	movls	r5, #1
   11104:	e7cd      	b.n	110a2 <plural_eval+0x5e>
   11106:	4285      	cmp	r5, r0
   11108:	bf94      	ite	ls
   1110a:	2500      	movls	r5, #0
   1110c:	2501      	movhi	r5, #1
   1110e:	e7c8      	b.n	110a2 <plural_eval+0x5e>
   11110:	4285      	cmp	r5, r0
   11112:	bf2c      	ite	cs
   11114:	2500      	movcs	r5, #0
   11116:	2501      	movcc	r5, #1
   11118:	e7c3      	b.n	110a2 <plural_eval+0x5e>
   1111a:	1a2d      	subs	r5, r5, r0
   1111c:	e7c1      	b.n	110a2 <plural_eval+0x5e>
   1111e:	4405      	add	r5, r0
   11120:	e7bf      	b.n	110a2 <plural_eval+0x5e>
   11122:	4601      	mov	r1, r0
   11124:	4628      	mov	r0, r5
   11126:	f03e fd59 	bl	4fbdc <__aeabi_uidivmod>
   1112a:	460d      	mov	r5, r1
   1112c:	e7b9      	b.n	110a2 <plural_eval+0x5e>
   1112e:	4601      	mov	r1, r0
   11130:	4628      	mov	r0, r5
   11132:	f03e fc25 	bl	4f980 <__udivsi3>
   11136:	4605      	mov	r5, r0
   11138:	e7b3      	b.n	110a2 <plural_eval+0x5e>
   1113a:	fb00 f505 	mul.w	r5, r0, r5
   1113e:	e7b0      	b.n	110a2 <plural_eval+0x5e>

00011140 <transcmp>:
   11140:	b538      	push	{r3, r4, r5, lr}
   11142:	4605      	mov	r5, r0
   11144:	6903      	ldr	r3, [r0, #16]
   11146:	460c      	mov	r4, r1
   11148:	301c      	adds	r0, #28
   1114a:	b1b3      	cbz	r3, 1117a <transcmp+0x3a>
   1114c:	6923      	ldr	r3, [r4, #16]
   1114e:	f104 011c 	add.w	r1, r4, #28
   11152:	b183      	cbz	r3, 11176 <transcmp+0x36>
   11154:	f00d fc1c 	bl	1e990 <strcmp>
   11158:	b960      	cbnz	r0, 11174 <transcmp+0x34>
   1115a:	6821      	ldr	r1, [r4, #0]
   1115c:	6828      	ldr	r0, [r5, #0]
   1115e:	f00d fc17 	bl	1e990 <strcmp>
   11162:	b938      	cbnz	r0, 11174 <transcmp+0x34>
   11164:	68a1      	ldr	r1, [r4, #8]
   11166:	68a8      	ldr	r0, [r5, #8]
   11168:	f00d fc12 	bl	1e990 <strcmp>
   1116c:	b910      	cbnz	r0, 11174 <transcmp+0x34>
   1116e:	6868      	ldr	r0, [r5, #4]
   11170:	6863      	ldr	r3, [r4, #4]
   11172:	1ac0      	subs	r0, r0, r3
   11174:	bd38      	pop	{r3, r4, r5, pc}
   11176:	69e1      	ldr	r1, [r4, #28]
   11178:	e7ec      	b.n	11154 <transcmp+0x14>
   1117a:	69e8      	ldr	r0, [r5, #28]
   1117c:	e7e6      	b.n	1114c <transcmp+0xc>
   1117e:	bf00      	nop

00011180 <plural_lookup.isra.2>:
   11180:	b5f8      	push	{r3, r4, r5, r6, r7, lr}
   11182:	4607      	mov	r7, r0
   11184:	6e00      	ldr	r0, [r0, #96]	; 0x60
   11186:	461d      	mov	r5, r3
   11188:	4616      	mov	r6, r2
   1118a:	f7ff ff5b 	bl	11044 <plural_eval>
   1118e:	6e7b      	ldr	r3, [r7, #100]	; 0x64
   11190:	4298      	cmp	r0, r3
   11192:	d20d      	bcs.n	111b0 <plural_lookup.isra.2+0x30>
   11194:	4435      	add	r5, r6
   11196:	4604      	mov	r4, r0
   11198:	4632      	mov	r2, r6
   1119a:	f114 34ff 	adds.w	r4, r4, #4294967295	; 0xffffffff
   1119e:	4610      	mov	r0, r2
   111a0:	f04f 0100 	mov.w	r1, #0
   111a4:	d306      	bcc.n	111b4 <plural_lookup.isra.2+0x34>
   111a6:	f00e fe8b 	bl	1fec0 <__rawmemchr>
   111aa:	1c42      	adds	r2, r0, #1
   111ac:	42aa      	cmp	r2, r5
   111ae:	d3f4      	bcc.n	1119a <plural_lookup.isra.2+0x1a>
   111b0:	4630      	mov	r0, r6
   111b2:	bdf8      	pop	{r3, r4, r5, r6, r7, pc}
   111b4:	4616      	mov	r6, r2
   111b6:	e7fb      	b.n	111b0 <plural_lookup.isra.2+0x30>

000111b8 <_nl_find_msg>:
   111b8:	e92d 4ff0 	stmdb	sp!, {r4, r5, r6, r7, r8, r9, sl, fp, lr}
   111bc:	b093      	sub	sp, #76	; 0x4c
   111be:	af02      	add	r7, sp, #8
   111c0:	f647 3498 	movw	r4, #31640	; 0x7b98
   111c4:	f2c0 0407 	movt	r4, #7
   111c8:	4693      	mov	fp, r2
   111ca:	60bb      	str	r3, [r7, #8]
   111cc:	6843      	ldr	r3, [r0, #4]
   111ce:	6822      	ldr	r2, [r4, #0]
   111d0:	e9c7 4005 	strd	r4, r0, [r7, #20]
   111d4:	2b00      	cmp	r3, #0
   111d6:	6ebc      	ldr	r4, [r7, #104]	; 0x68
   111d8:	6039      	str	r1, [r7, #0]
   111da:	63fa      	str	r2, [r7, #60]	; 0x3c
   111dc:	607c      	str	r4, [r7, #4]
   111de:	f340 80bb 	ble.w	11358 <_nl_find_msg+0x1a0>
   111e2:	69bb      	ldr	r3, [r7, #24]
   111e4:	689d      	ldr	r5, [r3, #8]
   111e6:	2d00      	cmp	r5, #0
   111e8:	f000 80a9 	beq.w	1133e <_nl_find_msg+0x186>
   111ec:	696a      	ldr	r2, [r5, #20]
   111ee:	6b2b      	ldr	r3, [r5, #48]	; 0x30
   111f0:	62fa      	str	r2, [r7, #44]	; 0x2c
   111f2:	2b00      	cmp	r3, #0
   111f4:	d074      	beq.n	112e0 <_nl_find_msg+0x128>
   111f6:	4658      	mov	r0, fp
   111f8:	f00d fee2 	bl	1efc0 <strlen>
   111fc:	62b8      	str	r0, [r7, #40]	; 0x28
   111fe:	4658      	mov	r0, fp
   11200:	f002 ff02 	bl	14008 <__hash_string>
   11204:	6aec      	ldr	r4, [r5, #44]	; 0x2c
   11206:	4621      	mov	r1, r4
   11208:	4680      	mov	r8, r0
   1120a:	f03e fce7 	bl	4fbdc <__aeabi_uidivmod>
   1120e:	4640      	mov	r0, r8
   11210:	460e      	mov	r6, r1
   11212:	1ea1      	subs	r1, r4, #2
   11214:	f03e fce2 	bl	4fbdc <__aeabi_uidivmod>
   11218:	e9d5 320c 	ldrd	r3, r2, [r5, #48]	; 0x30
   1121c:	469a      	mov	sl, r3
   1121e:	4691      	mov	r9, r2
   11220:	465b      	mov	r3, fp
   11222:	3101      	adds	r1, #1
   11224:	6239      	str	r1, [r7, #32]
   11226:	1a60      	subs	r0, r4, r1
   11228:	1b09      	subs	r1, r1, r4
   1122a:	6278      	str	r0, [r7, #36]	; 0x24
   1122c:	61f9      	str	r1, [r7, #28]
   1122e:	f85a 4026 	ldr.w	r4, [sl, r6, lsl #2]
   11232:	f1b9 0f00 	cmp.w	r9, #0
   11236:	d000      	beq.n	1123a <_nl_find_msg+0x82>
   11238:	ba24      	rev	r4, r4
   1123a:	2c00      	cmp	r4, #0
   1123c:	d07f      	beq.n	1133e <_nl_find_msg+0x186>
   1123e:	6afa      	ldr	r2, [r7, #44]	; 0x2c
   11240:	3c01      	subs	r4, #1
   11242:	42a2      	cmp	r2, r4
   11244:	d929      	bls.n	1129a <_nl_find_msg+0xe2>
   11246:	69aa      	ldr	r2, [r5, #24]
   11248:	ea4f 0bc4 	mov.w	fp, r4, lsl #3
   1124c:	f8d5 800c 	ldr.w	r8, [r5, #12]
   11250:	eb02 010b 	add.w	r1, r2, fp
   11254:	f852 2034 	ldr.w	r2, [r2, r4, lsl #3]
   11258:	f1b8 0f00 	cmp.w	r8, #0
   1125c:	d007      	beq.n	1126e <_nl_find_msg+0xb6>
   1125e:	6ab8      	ldr	r0, [r7, #40]	; 0x28
   11260:	ba12      	rev	r2, r2
   11262:	4290      	cmp	r0, r2
   11264:	d812      	bhi.n	1128c <_nl_find_msg+0xd4>
   11266:	6849      	ldr	r1, [r1, #4]
   11268:	682a      	ldr	r2, [r5, #0]
   1126a:	ba09      	rev	r1, r1
   1126c:	e004      	b.n	11278 <_nl_find_msg+0xc0>
   1126e:	6ab8      	ldr	r0, [r7, #40]	; 0x28
   11270:	4290      	cmp	r0, r2
   11272:	d80b      	bhi.n	1128c <_nl_find_msg+0xd4>
   11274:	6849      	ldr	r1, [r1, #4]
   11276:	682a      	ldr	r2, [r5, #0]
   11278:	4411      	add	r1, r2
   1127a:	4618      	mov	r0, r3
   1127c:	60fa      	str	r2, [r7, #12]
   1127e:	613b      	str	r3, [r7, #16]
   11280:	f00d fb86 	bl	1e990 <strcmp>
   11284:	e9d7 2303 	ldrd	r2, r3, [r7, #12]
   11288:	2800      	cmp	r0, #0
   1128a:	d068      	beq.n	1135e <_nl_find_msg+0x1a6>
   1128c:	6a7a      	ldr	r2, [r7, #36]	; 0x24
   1128e:	42b2      	cmp	r2, r6
   11290:	bf94      	ite	ls
   11292:	69fa      	ldrls	r2, [r7, #28]
   11294:	6a3a      	ldrhi	r2, [r7, #32]
   11296:	4416      	add	r6, r2
   11298:	e7c9      	b.n	1122e <_nl_find_msg+0x76>
   1129a:	6af9      	ldr	r1, [r7, #44]	; 0x2c
   1129c:	6a6a      	ldr	r2, [r5, #36]	; 0x24
   1129e:	eba4 0801 	sub.w	r8, r4, r1
   112a2:	6ab8      	ldr	r0, [r7, #40]	; 0x28
   112a4:	eb02 01c8 	add.w	r1, r2, r8, lsl #3
   112a8:	f852 2038 	ldr.w	r2, [r2, r8, lsl #3]
   112ac:	4282      	cmp	r2, r0
   112ae:	d9ed      	bls.n	1128c <_nl_find_msg+0xd4>
   112b0:	4618      	mov	r0, r3
   112b2:	6849      	ldr	r1, [r1, #4]
   112b4:	613b      	str	r3, [r7, #16]
   112b6:	f00d fb6b 	bl	1e990 <strcmp>
   112ba:	693b      	ldr	r3, [r7, #16]
   112bc:	2800      	cmp	r0, #0
   112be:	d1e5      	bne.n	1128c <_nl_find_msg+0xd4>
   112c0:	6aab      	ldr	r3, [r5, #40]	; 0x28
   112c2:	eb03 02c8 	add.w	r2, r3, r8, lsl #3
   112c6:	f853 3038 	ldr.w	r3, [r3, r8, lsl #3]
   112ca:	f8d2 a004 	ldr.w	sl, [r2, #4]
   112ce:	62bb      	str	r3, [r7, #40]	; 0x28
   112d0:	68bb      	ldr	r3, [r7, #8]
   112d2:	2b00      	cmp	r3, #0
   112d4:	d157      	bne.n	11386 <_nl_find_msg+0x1ce>
   112d6:	687b      	ldr	r3, [r7, #4]
   112d8:	461a      	mov	r2, r3
   112da:	6abb      	ldr	r3, [r7, #40]	; 0x28
   112dc:	6013      	str	r3, [r2, #0]
   112de:	e030      	b.n	11342 <_nl_find_msg+0x18a>
   112e0:	f8c7 b024 	str.w	fp, [r7, #36]	; 0x24
   112e4:	4698      	mov	r8, r3
   112e6:	6afe      	ldr	r6, [r7, #44]	; 0x2c
   112e8:	46ab      	mov	fp, r5
   112ea:	e006      	b.n	112fa <_nl_find_msg+0x142>
   112ec:	462b      	mov	r3, r5
   112ee:	4655      	mov	r5, sl
   112f0:	469a      	mov	sl, r3
   112f2:	f000 8328 	beq.w	11946 <_nl_find_msg+0x78e>
   112f6:	f104 0801 	add.w	r8, r4, #1
   112fa:	4546      	cmp	r6, r8
   112fc:	d91f      	bls.n	1133e <_nl_find_msg+0x186>
   112fe:	f8db a000 	ldr.w	sl, [fp]
   11302:	f8db 3018 	ldr.w	r3, [fp, #24]
   11306:	f8db 500c 	ldr.w	r5, [fp, #12]
   1130a:	62bb      	str	r3, [r7, #40]	; 0x28
   1130c:	4653      	mov	r3, sl
   1130e:	46aa      	mov	sl, r5
   11310:	461d      	mov	r5, r3
   11312:	eb08 0406 	add.w	r4, r8, r6
   11316:	6abb      	ldr	r3, [r7, #40]	; 0x28
   11318:	0864      	lsrs	r4, r4, #1
   1131a:	ea4f 09c4 	mov.w	r9, r4, lsl #3
   1131e:	eb03 0209 	add.w	r2, r3, r9
   11322:	6851      	ldr	r1, [r2, #4]
   11324:	f1ba 0f00 	cmp.w	sl, #0
   11328:	d000      	beq.n	1132c <_nl_find_msg+0x174>
   1132a:	ba09      	rev	r1, r1
   1132c:	4429      	add	r1, r5
   1132e:	6a78      	ldr	r0, [r7, #36]	; 0x24
   11330:	f00d fb2e 	bl	1e990 <strcmp>
   11334:	2800      	cmp	r0, #0
   11336:	dad9      	bge.n	112ec <_nl_find_msg+0x134>
   11338:	45a0      	cmp	r8, r4
   1133a:	4626      	mov	r6, r4
   1133c:	d3e9      	bcc.n	11312 <_nl_find_msg+0x15a>
   1133e:	f04f 0a00 	mov.w	sl, #0
   11342:	697b      	ldr	r3, [r7, #20]
   11344:	4650      	mov	r0, sl
   11346:	6bfa      	ldr	r2, [r7, #60]	; 0x3c
   11348:	681b      	ldr	r3, [r3, #0]
   1134a:	429a      	cmp	r2, r3
   1134c:	f040 82f6 	bne.w	1193c <_nl_find_msg+0x784>
   11350:	3744      	adds	r7, #68	; 0x44
   11352:	46bd      	mov	sp, r7
   11354:	e8bd 8ff0 	ldmia.w	sp!, {r4, r5, r6, r7, r8, r9, sl, fp, pc}
   11358:	f000 fe86 	bl	12068 <_nl_load_domain>
   1135c:	e741      	b.n	111e2 <_nl_find_msg+0x2a>
   1135e:	46c1      	mov	r9, r8
   11360:	4692      	mov	sl, r2
   11362:	46d8      	mov	r8, fp
   11364:	69eb      	ldr	r3, [r5, #28]
   11366:	4498      	add	r8, r3
   11368:	f853 3034 	ldr.w	r3, [r3, r4, lsl #3]
   1136c:	f8d8 2004 	ldr.w	r2, [r8, #4]
   11370:	f1b9 0f00 	cmp.w	r9, #0
   11374:	d052      	beq.n	1141c <_nl_find_msg+0x264>
   11376:	ba1b      	rev	r3, r3
   11378:	ba12      	rev	r2, r2
   1137a:	3301      	adds	r3, #1
   1137c:	62bb      	str	r3, [r7, #40]	; 0x28
   1137e:	68bb      	ldr	r3, [r7, #8]
   11380:	4492      	add	sl, r2
   11382:	2b00      	cmp	r3, #0
   11384:	d0a7      	beq.n	112d6 <_nl_find_msg+0x11e>
   11386:	683b      	ldr	r3, [r7, #0]
   11388:	2b00      	cmp	r3, #0
   1138a:	d04b      	beq.n	11424 <_nl_find_msg+0x26c>
   1138c:	689e      	ldr	r6, [r3, #8]
   1138e:	2e00      	cmp	r6, #0
   11390:	d048      	beq.n	11424 <_nl_find_msg+0x26c>
   11392:	f240 0300 	movw	r3, #0
   11396:	f2c0 0300 	movt	r3, #0
   1139a:	b11b      	cbz	r3, 113a4 <_nl_find_msg+0x1ec>
   1139c:	f105 0040 	add.w	r0, r5, #64	; 0x40
   113a0:	f3af 8000 	nop.w
   113a4:	f8d5 b03c 	ldr.w	fp, [r5, #60]	; 0x3c
   113a8:	f1bb 0f00 	cmp.w	fp, #0
   113ac:	d050      	beq.n	11450 <_nl_find_msg+0x298>
   113ae:	f04f 080c 	mov.w	r8, #12
   113b2:	6bab      	ldr	r3, [r5, #56]	; 0x38
   113b4:	fb08 f80b 	mul.w	r8, r8, fp
   113b8:	f1a8 080c 	sub.w	r8, r8, #12
   113bc:	4498      	add	r8, r3
   113be:	4633      	mov	r3, r6
   113c0:	465e      	mov	r6, fp
   113c2:	469b      	mov	fp, r3
   113c4:	e003      	b.n	113ce <_nl_find_msg+0x216>
   113c6:	f1a8 080c 	sub.w	r8, r8, #12
   113ca:	2e00      	cmp	r6, #0
   113cc:	d03f      	beq.n	1144e <_nl_find_msg+0x296>
   113ce:	4659      	mov	r1, fp
   113d0:	f8d8 0000 	ldr.w	r0, [r8]
   113d4:	3e01      	subs	r6, #1
   113d6:	46c1      	mov	r9, r8
   113d8:	f00d fada 	bl	1e990 <strcmp>
   113dc:	2800      	cmp	r0, #0
   113de:	d1f2      	bne.n	113c6 <_nl_find_msg+0x20e>
   113e0:	f240 0300 	movw	r3, #0
   113e4:	f2c0 0300 	movt	r3, #0
   113e8:	b11b      	cbz	r3, 113f2 <_nl_find_msg+0x23a>
   113ea:	f105 0040 	add.w	r0, r5, #64	; 0x40
   113ee:	f3af 8000 	nop.w
   113f2:	f8d9 3004 	ldr.w	r3, [r9, #4]
   113f6:	3301      	adds	r3, #1
   113f8:	f43f af6d 	beq.w	112d6 <_nl_find_msg+0x11e>
   113fc:	f8d9 3008 	ldr.w	r3, [r9, #8]
   11400:	2b00      	cmp	r3, #0
   11402:	f000 81c9 	beq.w	11798 <_nl_find_msg+0x5e0>
   11406:	1c5a      	adds	r2, r3, #1
   11408:	d06a      	beq.n	114e0 <_nl_find_msg+0x328>
   1140a:	f853 3024 	ldr.w	r3, [r3, r4, lsl #2]
   1140e:	2b00      	cmp	r3, #0
   11410:	d069      	beq.n	114e6 <_nl_find_msg+0x32e>
   11412:	681a      	ldr	r2, [r3, #0]
   11414:	f103 0a04 	add.w	sl, r3, #4
   11418:	62ba      	str	r2, [r7, #40]	; 0x28
   1141a:	e75c      	b.n	112d6 <_nl_find_msg+0x11e>
   1141c:	3301      	adds	r3, #1
   1141e:	4492      	add	sl, r2
   11420:	62bb      	str	r3, [r7, #40]	; 0x28
   11422:	e755      	b.n	112d0 <_nl_find_msg+0x118>
   11424:	f249 38ac 	movw	r8, #37804	; 0x93ac
   11428:	f2c0 0807 	movt	r8, #7
   1142c:	f8d8 3008 	ldr.w	r3, [r8, #8]
   11430:	2b00      	cmp	r3, #0
   11432:	d043      	beq.n	114bc <_nl_find_msg+0x304>
   11434:	f8d8 600c 	ldr.w	r6, [r8, #12]
   11438:	2e00      	cmp	r6, #0
   1143a:	d1aa      	bne.n	11392 <_nl_find_msg+0x1da>
   1143c:	4bb5      	ldr	r3, [pc, #724]	; (11714 <_nl_find_msg+0x55c>)
   1143e:	ee1d 2f70 	mrc	15, 0, r2, cr13, cr0, {3}
   11442:	447b      	add	r3, pc
   11444:	681b      	ldr	r3, [r3, #0]
   11446:	58d3      	ldr	r3, [r2, r3]
   11448:	681b      	ldr	r3, [r3, #0]
   1144a:	6dde      	ldr	r6, [r3, #92]	; 0x5c
   1144c:	e7a1      	b.n	11392 <_nl_find_msg+0x1da>
   1144e:	465e      	mov	r6, fp
   11450:	f240 0300 	movw	r3, #0
   11454:	f2c0 0300 	movt	r3, #0
   11458:	627b      	str	r3, [r7, #36]	; 0x24
   1145a:	bb53      	cbnz	r3, 114b2 <_nl_find_msg+0x2fa>
   1145c:	f240 0300 	movw	r3, #0
   11460:	f2c0 0300 	movt	r3, #0
   11464:	b11b      	cbz	r3, 1146e <_nl_find_msg+0x2b6>
   11466:	f105 0040 	add.w	r0, r5, #64	; 0x40
   1146a:	f3af 8000 	nop.w
   1146e:	6bea      	ldr	r2, [r5, #60]	; 0x3c
   11470:	6ba9      	ldr	r1, [r5, #56]	; 0x38
   11472:	623a      	str	r2, [r7, #32]
   11474:	61f9      	str	r1, [r7, #28]
   11476:	2a00      	cmp	r2, #0
   11478:	f000 80c2 	beq.w	11600 <_nl_find_msg+0x448>
   1147c:	230c      	movs	r3, #12
   1147e:	fb03 1302 	mla	r3, r3, r2, r1
   11482:	f1a3 080c 	sub.w	r8, r3, #12
   11486:	4633      	mov	r3, r6
   11488:	469b      	mov	fp, r3
   1148a:	4616      	mov	r6, r2
   1148c:	e004      	b.n	11498 <_nl_find_msg+0x2e0>
   1148e:	f1a8 080c 	sub.w	r8, r8, #12
   11492:	2e00      	cmp	r6, #0
   11494:	f000 80b3 	beq.w	115fe <_nl_find_msg+0x446>
   11498:	4659      	mov	r1, fp
   1149a:	f8d8 0000 	ldr.w	r0, [r8]
   1149e:	3e01      	subs	r6, #1
   114a0:	46c1      	mov	r9, r8
   114a2:	f00d fa75 	bl	1e990 <strcmp>
   114a6:	2800      	cmp	r0, #0
   114a8:	d1f1      	bne.n	1148e <_nl_find_msg+0x2d6>
   114aa:	6a7b      	ldr	r3, [r7, #36]	; 0x24
   114ac:	2b00      	cmp	r3, #0
   114ae:	d19c      	bne.n	113ea <_nl_find_msg+0x232>
   114b0:	e79f      	b.n	113f2 <_nl_find_msg+0x23a>
   114b2:	f105 0040 	add.w	r0, r5, #64	; 0x40
   114b6:	f3af 8000 	nop.w
   114ba:	e7cf      	b.n	1145c <_nl_find_msg+0x2a4>
   114bc:	f641 5044 	movw	r0, #7492	; 0x1d44
   114c0:	f2c0 0005 	movt	r0, #5
   114c4:	f003 f88a 	bl	145dc <getenv>
   114c8:	4681      	mov	r9, r0
   114ca:	b118      	cbz	r0, 114d4 <_nl_find_msg+0x31c>
   114cc:	7803      	ldrb	r3, [r0, #0]
   114ce:	2b00      	cmp	r3, #0
   114d0:	f040 818d 	bne.w	117ee <_nl_find_msg+0x636>
   114d4:	f8d8 600c 	ldr.w	r6, [r8, #12]
   114d8:	2301      	movs	r3, #1
   114da:	f8c8 3008 	str.w	r3, [r8, #8]
   114de:	e7ab      	b.n	11438 <_nl_find_msg+0x280>
   114e0:	f04f 3aff 	mov.w	sl, #4294967295	; 0xffffffff
   114e4:	e72d      	b.n	11342 <_nl_find_msg+0x18a>
   114e6:	4b8c      	ldr	r3, [pc, #560]	; (11718 <_nl_find_msg+0x560>)
   114e8:	461a      	mov	r2, r3
   114ea:	627b      	str	r3, [r7, #36]	; 0x24
   114ec:	4611      	mov	r1, r2
   114ee:	2301      	movs	r3, #1
   114f0:	e851 2f00 	ldrex	r2, [r1]
   114f4:	2a00      	cmp	r2, #0
   114f6:	d105      	bne.n	11504 <_nl_find_msg+0x34c>
   114f8:	e841 3000 	strex	r0, r3, [r1]
   114fc:	2800      	cmp	r0, #0
   114fe:	d1f7      	bne.n	114f0 <_nl_find_msg+0x338>
   11500:	f3bf 8f5b 	dmb	ish
   11504:	f040 81e2 	bne.w	118cc <_nl_find_msg+0x714>
   11508:	f249 38ac 	movw	r8, #37804	; 0x93ac
   1150c:	f2c0 0807 	movt	r8, #7
   11510:	f107 0140 	add.w	r1, r7, #64	; 0x40
   11514:	62fc      	str	r4, [r7, #44]	; 0x2c
   11516:	f8d8 2014 	ldr.w	r2, [r8, #20]
   1151a:	2500      	movs	r5, #0
   1151c:	f8d8 3018 	ldr.w	r3, [r8, #24]
   11520:	4654      	mov	r4, sl
   11522:	3204      	adds	r2, #4
   11524:	f841 2d0c 	str.w	r2, [r1, #-12]!
   11528:	468b      	mov	fp, r1
   1152a:	f8c7 a030 	str.w	sl, [r7, #48]	; 0x30
   1152e:	2b03      	cmp	r3, #3
   11530:	d81a      	bhi.n	11568 <_nl_find_msg+0x3b0>
   11532:	b3a5      	cbz	r5, 1159e <_nl_find_msg+0x3e6>
   11534:	3501      	adds	r5, #1
   11536:	f44f 637f 	mov.w	r3, #4080	; 0xff0
   1153a:	f8d8 6004 	ldr.w	r6, [r8, #4]
   1153e:	fb03 fa05 	mul.w	sl, r3, r5
   11542:	4630      	mov	r0, r6
   11544:	4651      	mov	r1, sl
   11546:	f8c8 a018 	str.w	sl, [r8, #24]
   1154a:	f00c fbcf 	bl	1dcec <__libc_realloc>
   1154e:	b3b0      	cbz	r0, 115be <_nl_find_msg+0x406>
   11550:	f1aa 0304 	sub.w	r3, sl, #4
   11554:	f8c8 0004 	str.w	r0, [r8, #4]
   11558:	1d02      	adds	r2, r0, #4
   1155a:	f8c8 3018 	str.w	r3, [r8, #24]
   1155e:	3008      	adds	r0, #8
   11560:	f8c8 2014 	str.w	r2, [r8, #20]
   11564:	6378      	str	r0, [r7, #52]	; 0x34
   11566:	e7e2      	b.n	1152e <_nl_find_msg+0x376>
   11568:	6b79      	ldr	r1, [r7, #52]	; 0x34
   1156a:	f1a3 0c04 	sub.w	ip, r3, #4
   1156e:	f8d9 0004 	ldr.w	r0, [r9, #4]
   11572:	465b      	mov	r3, fp
   11574:	4461      	add	r1, ip
   11576:	6b3a      	ldr	r2, [r7, #48]	; 0x30
   11578:	9100      	str	r1, [sp, #0]
   1157a:	6ab9      	ldr	r1, [r7, #40]	; 0x28
   1157c:	440a      	add	r2, r1
   1157e:	f107 0138 	add.w	r1, r7, #56	; 0x38
   11582:	9101      	str	r1, [sp, #4]
   11584:	f107 0130 	add.w	r1, r7, #48	; 0x30
   11588:	f013 f90c 	bl	247a4 <__gconv>
   1158c:	f030 0304 	bics.w	r3, r0, #4
   11590:	f000 8148 	beq.w	11824 <_nl_find_msg+0x66c>
   11594:	2805      	cmp	r0, #5
   11596:	f040 8169 	bne.w	1186c <_nl_find_msg+0x6b4>
   1159a:	633c      	str	r4, [r7, #48]	; 0x30
   1159c:	e7c9      	b.n	11532 <_nl_find_msg+0x37a>
   1159e:	f44f 607f 	mov.w	r0, #4080	; 0xff0
   115a2:	f8c8 0018 	str.w	r0, [r8, #24]
   115a6:	f00c f8f9 	bl	1d79c <__libc_malloc>
   115aa:	b170      	cbz	r0, 115ca <_nl_find_msg+0x412>
   115ac:	f8d8 2004 	ldr.w	r2, [r8, #4]
   115b0:	f640 73ec 	movw	r3, #4076	; 0xfec
   115b4:	f8c8 0004 	str.w	r0, [r8, #4]
   115b8:	2501      	movs	r5, #1
   115ba:	6002      	str	r2, [r0, #0]
   115bc:	e7cc      	b.n	11558 <_nl_find_msg+0x3a0>
   115be:	6833      	ldr	r3, [r6, #0]
   115c0:	4630      	mov	r0, r6
   115c2:	f8c8 3004 	str.w	r3, [r8, #4]
   115c6:	f00c fb3f 	bl	1dc48 <__free>
   115ca:	6a7a      	ldr	r2, [r7, #36]	; 0x24
   115cc:	2300      	movs	r3, #0
   115ce:	e9c8 3305 	strd	r3, r3, [r8, #20]
   115d2:	f3bf 8f5b 	dmb	ish
   115d6:	4611      	mov	r1, r2
   115d8:	e851 2f00 	ldrex	r2, [r1]
   115dc:	e841 3000 	strex	r0, r3, [r1]
   115e0:	2800      	cmp	r0, #0
   115e2:	d1f9      	bne.n	115d8 <_nl_find_msg+0x420>
   115e4:	2a01      	cmp	r2, #1
   115e6:	f77f af7b 	ble.w	114e0 <_nl_find_msg+0x328>
   115ea:	484b      	ldr	r0, [pc, #300]	; (11718 <_nl_find_msg+0x560>)
   115ec:	2181      	movs	r1, #129	; 0x81
   115ee:	2201      	movs	r2, #1
   115f0:	f04f 0cf0 	mov.w	ip, #240	; 0xf0
   115f4:	f7ff fc74 	bl	10ee0 <__libc_do_syscall>
   115f8:	f04f 3aff 	mov.w	sl, #4294967295	; 0xffffffff
   115fc:	e6a1      	b.n	11342 <_nl_find_msg+0x18a>
   115fe:	465e      	mov	r6, fp
   11600:	6a3a      	ldr	r2, [r7, #32]
   11602:	230c      	movs	r3, #12
   11604:	69f8      	ldr	r0, [r7, #28]
   11606:	fb02 3803 	mla	r8, r2, r3, r3
   1160a:	2800      	cmp	r0, #0
   1160c:	f000 80ea 	beq.w	117e4 <_nl_find_msg+0x62c>
   11610:	4641      	mov	r1, r8
   11612:	f00c fb6b 	bl	1dcec <__libc_realloc>
   11616:	4683      	mov	fp, r0
   11618:	f1bb 0f00 	cmp.w	fp, #0
   1161c:	f000 80f7 	beq.w	1180e <_nl_find_msg+0x656>
   11620:	4630      	mov	r0, r6
   11622:	f8c5 b038 	str.w	fp, [r5, #56]	; 0x38
   11626:	f00d fca7 	bl	1ef78 <__strdup>
   1162a:	4606      	mov	r6, r0
   1162c:	2800      	cmp	r0, #0
   1162e:	f000 80ee 	beq.w	1180e <_nl_find_msg+0x656>
   11632:	f1a8 080c 	sub.w	r8, r8, #12
   11636:	f04f 32ff 	mov.w	r2, #4294967295	; 0xffffffff
   1163a:	eb0b 0908 	add.w	r9, fp, r8
   1163e:	f107 0338 	add.w	r3, r7, #56	; 0x38
   11642:	f84b 6008 	str.w	r6, [fp, r8]
   11646:	6839      	ldr	r1, [r7, #0]
   11648:	f8c9 2004 	str.w	r2, [r9, #4]
   1164c:	f645 6298 	movw	r2, #24216	; 0x5e98
   11650:	9300      	str	r3, [sp, #0]
   11652:	f2c0 0206 	movt	r2, #6
   11656:	2300      	movs	r3, #0
   11658:	69b8      	ldr	r0, [r7, #24]
   1165a:	f7ff fdad 	bl	111b8 <_nl_find_msg>
   1165e:	1c42      	adds	r2, r0, #1
   11660:	4603      	mov	r3, r0
   11662:	f000 8118 	beq.w	11896 <_nl_find_msg+0x6de>
   11666:	2800      	cmp	r0, #0
   11668:	f000 808f 	beq.w	1178a <_nl_find_msg+0x5d2>
   1166c:	f641 5154 	movw	r1, #7508	; 0x1d54
   11670:	f2c0 0105 	movt	r1, #5
   11674:	f00d ff20 	bl	1f4b8 <strstr>
   11678:	2800      	cmp	r0, #0
   1167a:	f000 8086 	beq.w	1178a <_nl_find_msg+0x5d2>
   1167e:	f100 0808 	add.w	r8, r0, #8
   11682:	f641 5160 	movw	r1, #7520	; 0x1d60
   11686:	f2c0 0105 	movt	r1, #5
   1168a:	4640      	mov	r0, r8
   1168c:	f00d fc06 	bl	1ee9c <strcspn>
   11690:	4641      	mov	r1, r8
   11692:	f100 030f 	add.w	r3, r0, #15
   11696:	4602      	mov	r2, r0
   11698:	f023 0307 	bic.w	r3, r3, #7
   1169c:	ebad 0d03 	sub.w	sp, sp, r3
   116a0:	f10d 0808 	add.w	r8, sp, #8
   116a4:	4640      	mov	r0, r8
   116a6:	f00e fbe1 	bl	1fe6c <__mempcpy>
   116aa:	f04f 0c00 	mov.w	ip, #0
   116ae:	4632      	mov	r2, r6
   116b0:	f880 c000 	strb.w	ip, [r0]
   116b4:	4630      	mov	r0, r6
   116b6:	e004      	b.n	116c2 <_nl_find_msg+0x50a>
   116b8:	292f      	cmp	r1, #47	; 0x2f
   116ba:	4618      	mov	r0, r3
   116bc:	bf08      	it	eq
   116be:	f10c 0c01 	addeq.w	ip, ip, #1
   116c2:	4603      	mov	r3, r0
   116c4:	f813 1b01 	ldrb.w	r1, [r3], #1
   116c8:	2900      	cmp	r1, #0
   116ca:	d1f5      	bne.n	116b8 <_nl_find_msg+0x500>
   116cc:	1b81      	subs	r1, r0, r6
   116ce:	7833      	ldrb	r3, [r6, #0]
   116d0:	3119      	adds	r1, #25
   116d2:	f021 0107 	bic.w	r1, r1, #7
   116d6:	ebad 0d01 	sub.w	sp, sp, r1
   116da:	f10d 0b08 	add.w	fp, sp, #8
   116de:	4658      	mov	r0, fp
   116e0:	b16b      	cbz	r3, 116fe <_nl_find_msg+0x546>
   116e2:	f640 31f4 	movw	r1, #3060	; 0xbf4
   116e6:	f2c0 0106 	movt	r1, #6
   116ea:	f8d1 e03c 	ldr.w	lr, [r1, #60]	; 0x3c
   116ee:	f85e 1023 	ldr.w	r1, [lr, r3, lsl #2]
   116f2:	f812 3f01 	ldrb.w	r3, [r2, #1]!
   116f6:	f800 1b01 	strb.w	r1, [r0], #1
   116fa:	2b00      	cmp	r3, #0
   116fc:	d1f7      	bne.n	116ee <_nl_find_msg+0x536>
   116fe:	f1bc 0f01 	cmp.w	ip, #1
   11702:	f240 80d5 	bls.w	118b0 <_nl_find_msg+0x6f8>
   11706:	f04f 0c00 	mov.w	ip, #0
   1170a:	4641      	mov	r1, r8
   1170c:	f880 c000 	strb.w	ip, [r0]
   11710:	4640      	mov	r0, r8
   11712:	e008      	b.n	11726 <_nl_find_msg+0x56e>
   11714:	00066c16 	.word	0x00066c16
   11718:	000793bc 	.word	0x000793bc
   1171c:	2a2f      	cmp	r2, #47	; 0x2f
   1171e:	4618      	mov	r0, r3
   11720:	bf08      	it	eq
   11722:	f10c 0c01 	addeq.w	ip, ip, #1
   11726:	4603      	mov	r3, r0
   11728:	f813 2b01 	ldrb.w	r2, [r3], #1
   1172c:	2a00      	cmp	r2, #0
   1172e:	d1f5      	bne.n	1171c <_nl_find_msg+0x564>
   11730:	eba0 0208 	sub.w	r2, r0, r8
   11734:	f898 3000 	ldrb.w	r3, [r8]
   11738:	3211      	adds	r2, #17
   1173a:	f022 0207 	bic.w	r2, r2, #7
   1173e:	ebad 0d02 	sub.w	sp, sp, r2
   11742:	f10d 0808 	add.w	r8, sp, #8
   11746:	4642      	mov	r2, r8
   11748:	b16b      	cbz	r3, 11766 <_nl_find_msg+0x5ae>
   1174a:	f640 30f4 	movw	r0, #3060	; 0xbf4
   1174e:	f2c0 0006 	movt	r0, #6
   11752:	f8d0 e03c 	ldr.w	lr, [r0, #60]	; 0x3c
   11756:	f85e 0023 	ldr.w	r0, [lr, r3, lsl #2]
   1175a:	f811 3f01 	ldrb.w	r3, [r1, #1]!
   1175e:	f802 0b01 	strb.w	r0, [r2], #1
   11762:	2b00      	cmp	r3, #0
   11764:	d1f7      	bne.n	11756 <_nl_find_msg+0x59e>
   11766:	f1bc 0f01 	cmp.w	ip, #1
   1176a:	f240 80a8 	bls.w	118be <_nl_find_msg+0x706>
   1176e:	f04f 0c00 	mov.w	ip, #0
   11772:	4641      	mov	r1, r8
   11774:	f882 c000 	strb.w	ip, [r2]
   11778:	4658      	mov	r0, fp
   1177a:	2301      	movs	r3, #1
   1177c:	f109 0204 	add.w	r2, r9, #4
   11780:	f012 fe3c 	bl	243fc <__gconv_open>
   11784:	2800      	cmp	r0, #0
   11786:	f040 80b9 	bne.w	118fc <_nl_find_msg+0x744>
   1178a:	6beb      	ldr	r3, [r5, #60]	; 0x3c
   1178c:	2200      	movs	r2, #0
   1178e:	f8c9 2008 	str.w	r2, [r9, #8]
   11792:	3301      	adds	r3, #1
   11794:	63eb      	str	r3, [r5, #60]	; 0x3c
   11796:	e688      	b.n	114aa <_nl_find_msg+0x2f2>
   11798:	4b70      	ldr	r3, [pc, #448]	; (1195c <_nl_find_msg+0x7a4>)
   1179a:	461a      	mov	r2, r3
   1179c:	627b      	str	r3, [r7, #36]	; 0x24
   1179e:	4611      	mov	r1, r2
   117a0:	2301      	movs	r3, #1
   117a2:	e851 2f00 	ldrex	r2, [r1]
   117a6:	2a00      	cmp	r2, #0
   117a8:	d105      	bne.n	117b6 <_nl_find_msg+0x5fe>
   117aa:	e841 3000 	strex	r0, r3, [r1]
   117ae:	2800      	cmp	r0, #0
   117b0:	d1f7      	bne.n	117a2 <_nl_find_msg+0x5ea>
   117b2:	f3bf 8f5b 	dmb	ish
   117b6:	f040 8090 	bne.w	118da <_nl_find_msg+0x722>
   117ba:	f8d9 3008 	ldr.w	r3, [r9, #8]
   117be:	2b00      	cmp	r3, #0
   117c0:	d06b      	beq.n	1189a <_nl_find_msg+0x6e2>
   117c2:	6a7a      	ldr	r2, [r7, #36]	; 0x24
   117c4:	2300      	movs	r3, #0
   117c6:	f3bf 8f5b 	dmb	ish
   117ca:	4611      	mov	r1, r2
   117cc:	e851 2f00 	ldrex	r2, [r1]
   117d0:	e841 3000 	strex	r0, r3, [r1]
   117d4:	2800      	cmp	r0, #0
   117d6:	d1f9      	bne.n	117cc <_nl_find_msg+0x614>
   117d8:	2a01      	cmp	r2, #1
   117da:	f300 8082 	bgt.w	118e2 <_nl_find_msg+0x72a>
   117de:	f8d9 3008 	ldr.w	r3, [r9, #8]
   117e2:	e610      	b.n	11406 <_nl_find_msg+0x24e>
   117e4:	4640      	mov	r0, r8
   117e6:	f00b ffd9 	bl	1d79c <__libc_malloc>
   117ea:	4683      	mov	fp, r0
   117ec:	e714      	b.n	11618 <_nl_find_msg+0x460>
   117ee:	f00d fbe7 	bl	1efc0 <strlen>
   117f2:	f100 0b01 	add.w	fp, r0, #1
   117f6:	4658      	mov	r0, fp
   117f8:	f00b ffd0 	bl	1d79c <__libc_malloc>
   117fc:	4606      	mov	r6, r0
   117fe:	b118      	cbz	r0, 11808 <_nl_find_msg+0x650>
   11800:	465a      	mov	r2, fp
   11802:	4649      	mov	r1, r9
   11804:	f7fe ecb8 	blx	10178 <__rel_iplt_end+0x10>
   11808:	f8c8 600c 	str.w	r6, [r8, #12]
   1180c:	e664      	b.n	114d8 <_nl_find_msg+0x320>
   1180e:	6a7b      	ldr	r3, [r7, #36]	; 0x24
   11810:	2b00      	cmp	r3, #0
   11812:	f43f ae65 	beq.w	114e0 <_nl_find_msg+0x328>
   11816:	f105 0040 	add.w	r0, r5, #64	; 0x40
   1181a:	f04f 3aff 	mov.w	sl, #4294967295	; 0xffffffff
   1181e:	f3af 8000 	nop.w
   11822:	e58e      	b.n	11342 <_nl_find_msg+0x18a>
   11824:	e9d8 6205 	ldrd	r6, r2, [r8, #20]
   11828:	6b79      	ldr	r1, [r7, #52]	; 0x34
   1182a:	6afc      	ldr	r4, [r7, #44]	; 0x2c
   1182c:	1b88      	subs	r0, r1, r6
   1182e:	f8d9 c008 	ldr.w	ip, [r9, #8]
   11832:	1a12      	subs	r2, r2, r0
   11834:	3804      	subs	r0, #4
   11836:	6030      	str	r0, [r6, #0]
   11838:	f002 0003 	and.w	r0, r2, #3
   1183c:	4401      	add	r1, r0
   1183e:	f022 0203 	bic.w	r2, r2, #3
   11842:	e9c8 1205 	strd	r1, r2, [r8, #20]
   11846:	00a5      	lsls	r5, r4, #2
   11848:	6a7a      	ldr	r2, [r7, #36]	; 0x24
   1184a:	f84c 6024 	str.w	r6, [ip, r4, lsl #2]
   1184e:	f3bf 8f5b 	dmb	ish
   11852:	4611      	mov	r1, r2
   11854:	e851 2f00 	ldrex	r2, [r1]
   11858:	e841 3000 	strex	r0, r3, [r1]
   1185c:	2800      	cmp	r0, #0
   1185e:	d1f9      	bne.n	11854 <_nl_find_msg+0x69c>
   11860:	2a01      	cmp	r2, #1
   11862:	dc63      	bgt.n	1192c <_nl_find_msg+0x774>
   11864:	f8d9 3008 	ldr.w	r3, [r9, #8]
   11868:	595b      	ldr	r3, [r3, r5]
   1186a:	e5d2      	b.n	11412 <_nl_find_msg+0x25a>
   1186c:	6a7a      	ldr	r2, [r7, #36]	; 0x24
   1186e:	2300      	movs	r3, #0
   11870:	f3bf 8f5b 	dmb	ish
   11874:	4611      	mov	r1, r2
   11876:	e851 2f00 	ldrex	r2, [r1]
   1187a:	e841 3000 	strex	r0, r3, [r1]
   1187e:	2800      	cmp	r0, #0
   11880:	d1f9      	bne.n	11876 <_nl_find_msg+0x6be>
   11882:	2a01      	cmp	r2, #1
   11884:	f77f ad5b 	ble.w	1133e <_nl_find_msg+0x186>
   11888:	4834      	ldr	r0, [pc, #208]	; (1195c <_nl_find_msg+0x7a4>)
   1188a:	2181      	movs	r1, #129	; 0x81
   1188c:	2201      	movs	r2, #1
   1188e:	f04f 0cf0 	mov.w	ip, #240	; 0xf0
   11892:	f7ff fb25 	bl	10ee0 <__libc_do_syscall>
   11896:	469a      	mov	sl, r3
   11898:	e553      	b.n	11342 <_nl_find_msg+0x18a>
   1189a:	6a28      	ldr	r0, [r5, #32]
   1189c:	2104      	movs	r1, #4
   1189e:	6afb      	ldr	r3, [r7, #44]	; 0x2c
   118a0:	4403      	add	r3, r0
   118a2:	4618      	mov	r0, r3
   118a4:	f00c fbbe 	bl	1e024 <__calloc>
   118a8:	b318      	cbz	r0, 118f2 <_nl_find_msg+0x73a>
   118aa:	f8c9 0008 	str.w	r0, [r9, #8]
   118ae:	e62b      	b.n	11508 <_nl_find_msg+0x350>
   118b0:	232f      	movs	r3, #47	; 0x2f
   118b2:	7003      	strb	r3, [r0, #0]
   118b4:	f1bc 0f00 	cmp.w	ip, #0
   118b8:	d02e      	beq.n	11918 <_nl_find_msg+0x760>
   118ba:	3001      	adds	r0, #1
   118bc:	e723      	b.n	11706 <_nl_find_msg+0x54e>
   118be:	232f      	movs	r3, #47	; 0x2f
   118c0:	7013      	strb	r3, [r2, #0]
   118c2:	f1bc 0f00 	cmp.w	ip, #0
   118c6:	d005      	beq.n	118d4 <_nl_find_msg+0x71c>
   118c8:	3201      	adds	r2, #1
   118ca:	e750      	b.n	1176e <_nl_find_msg+0x5b6>
   118cc:	6a78      	ldr	r0, [r7, #36]	; 0x24
   118ce:	f011 fc75 	bl	231bc <__lll_lock_wait_private>
   118d2:	e619      	b.n	11508 <_nl_find_msg+0x350>
   118d4:	7053      	strb	r3, [r2, #1]
   118d6:	3202      	adds	r2, #2
   118d8:	e749      	b.n	1176e <_nl_find_msg+0x5b6>
   118da:	6a78      	ldr	r0, [r7, #36]	; 0x24
   118dc:	f011 fc6e 	bl	231bc <__lll_lock_wait_private>
   118e0:	e76b      	b.n	117ba <_nl_find_msg+0x602>
   118e2:	481e      	ldr	r0, [pc, #120]	; (1195c <_nl_find_msg+0x7a4>)
   118e4:	2181      	movs	r1, #129	; 0x81
   118e6:	2201      	movs	r2, #1
   118e8:	f04f 0cf0 	mov.w	ip, #240	; 0xf0
   118ec:	f7ff faf8 	bl	10ee0 <__libc_do_syscall>
   118f0:	e775      	b.n	117de <_nl_find_msg+0x626>
   118f2:	f04f 33ff 	mov.w	r3, #4294967295	; 0xffffffff
   118f6:	f8c9 3008 	str.w	r3, [r9, #8]
   118fa:	e762      	b.n	117c2 <_nl_find_msg+0x60a>
   118fc:	1c41      	adds	r1, r0, #1
   118fe:	d01f      	beq.n	11940 <_nl_find_msg+0x788>
   11900:	6a7b      	ldr	r3, [r7, #36]	; 0x24
   11902:	b11b      	cbz	r3, 1190c <_nl_find_msg+0x754>
   11904:	f105 0040 	add.w	r0, r5, #64	; 0x40
   11908:	f3af 8000 	nop.w
   1190c:	4630      	mov	r0, r6
   1190e:	f00c f99b 	bl	1dc48 <__free>
   11912:	2300      	movs	r3, #0
   11914:	469a      	mov	sl, r3
   11916:	e514      	b.n	11342 <_nl_find_msg+0x18a>
   11918:	7043      	strb	r3, [r0, #1]
   1191a:	f243 2140 	movw	r1, #12864	; 0x3240
   1191e:	2208      	movs	r2, #8
   11920:	f2c0 0105 	movt	r1, #5
   11924:	3002      	adds	r0, #2
   11926:	f00e faa1 	bl	1fe6c <__mempcpy>
   1192a:	e6ec      	b.n	11706 <_nl_find_msg+0x54e>
   1192c:	480b      	ldr	r0, [pc, #44]	; (1195c <_nl_find_msg+0x7a4>)
   1192e:	2181      	movs	r1, #129	; 0x81
   11930:	2201      	movs	r2, #1
   11932:	f04f 0cf0 	mov.w	ip, #240	; 0xf0
   11936:	f7ff fad3 	bl	10ee0 <__libc_do_syscall>
   1193a:	e793      	b.n	11864 <_nl_find_msg+0x6ac>
   1193c:	f011 fcd8 	bl	232f0 <__stack_chk_fail>
   11940:	f8c9 0004 	str.w	r0, [r9, #4]
   11944:	e721      	b.n	1178a <_nl_find_msg+0x5d2>
   11946:	6afb      	ldr	r3, [r7, #44]	; 0x2c
   11948:	46c8      	mov	r8, r9
   1194a:	46a9      	mov	r9, r5
   1194c:	465d      	mov	r5, fp
   1194e:	42a3      	cmp	r3, r4
   11950:	f63f ad08 	bhi.w	11364 <_nl_find_msg+0x1ac>
   11954:	eba4 0803 	sub.w	r8, r4, r3
   11958:	e4b2      	b.n	112c0 <_nl_find_msg+0x108>
   1195a:	bf00      	nop
   1195c:	000793bc 	.word	0x000793bc

00011960 <__dcigettext>:
   11960:	e92d 4ff0 	stmdb	sp!, {r4, r5, r6, r7, r8, r9, sl, fp, lr}
   11964:	b09f      	sub	sp, #124	; 0x7c
   11966:	f647 3b98 	movw	fp, #31640	; 0x7b98
   1196a:	af02      	add	r7, sp, #8
   1196c:	f2c0 0b07 	movt	fp, #7
   11970:	623a      	str	r2, [r7, #32]
   11972:	f8db 2000 	ldr.w	r2, [fp]
   11976:	62bb      	str	r3, [r7, #40]	; 0x28
   11978:	2300      	movs	r3, #0
   1197a:	647b      	str	r3, [r7, #68]	; 0x44
   1197c:	66fa      	str	r2, [r7, #108]	; 0x6c
   1197e:	2900      	cmp	r1, #0
   11980:	f000 8216 	beq.w	11db0 <__dcigettext+0x450>
   11984:	f8d7 309c 	ldr.w	r3, [r7, #156]	; 0x9c
   11988:	468a      	mov	sl, r1
   1198a:	f1a3 0406 	sub.w	r4, r3, #6
   1198e:	fab4 f484 	clz	r4, r4
   11992:	0964      	lsrs	r4, r4, #5
   11994:	2b0c      	cmp	r3, #12
   11996:	bf88      	it	hi
   11998:	f044 0401 	orrhi.w	r4, r4, #1
   1199c:	2c00      	cmp	r4, #0
   1199e:	f040 8129 	bne.w	11bf4 <__dcigettext+0x294>
   119a2:	4bc2      	ldr	r3, [pc, #776]	; (11cac <__dcigettext+0x34c>)
   119a4:	ee1d 2f70 	mrc	15, 0, r2, cr13, cr0, {3}
   119a8:	613a      	str	r2, [r7, #16]
   119aa:	f240 0500 	movw	r5, #0
   119ae:	447b      	add	r3, pc
   119b0:	681b      	ldr	r3, [r3, #0]
   119b2:	f2c0 0500 	movt	r5, #0
   119b6:	4681      	mov	r9, r0
   119b8:	58d3      	ldr	r3, [r2, r3]
   119ba:	617b      	str	r3, [r7, #20]
   119bc:	2d00      	cmp	r5, #0
   119be:	f000 8122 	beq.w	11c06 <__dcigettext+0x2a6>
   119c2:	f249 7038 	movw	r0, #38712	; 0x9738
   119c6:	f2c0 0007 	movt	r0, #7
   119ca:	f3af 8000 	nop.w
   119ce:	48b8      	ldr	r0, [pc, #736]	; (11cb0 <__dcigettext+0x350>)
   119d0:	f3af 8000 	nop.w
   119d4:	f1b9 0f00 	cmp.w	r9, #0
   119d8:	f000 8122 	beq.w	11c20 <__dcigettext+0x2c0>
   119dc:	f8d7 009c 	ldr.w	r0, [r7, #156]	; 0x9c
   119e0:	65fc      	str	r4, [r7, #92]	; 0x5c
   119e2:	f8c7 a068 	str.w	sl, [r7, #104]	; 0x68
   119e6:	f8c7 904c 	str.w	r9, [r7, #76]	; 0x4c
   119ea:	6538      	str	r0, [r7, #80]	; 0x50
   119ec:	f01a f9f2 	bl	2bdd4 <__current_locale_name>
   119f0:	60f8      	str	r0, [r7, #12]
   119f2:	6578      	str	r0, [r7, #84]	; 0x54
   119f4:	48af      	ldr	r0, [pc, #700]	; (11cb4 <__dcigettext+0x354>)
   119f6:	f3af 8000 	nop.w
   119fa:	f240 0300 	movw	r3, #0
   119fe:	f2c0 0300 	movt	r3, #0
   11a02:	f241 1241 	movw	r2, #4417	; 0x1141
   11a06:	f249 31ac 	movw	r1, #37804	; 0x93ac
   11a0a:	f2c0 0201 	movt	r2, #1
   11a0e:	f2c0 0107 	movt	r1, #7
   11a12:	f107 004c 	add.w	r0, r7, #76	; 0x4c
   11a16:	461c      	mov	r4, r3
   11a18:	627b      	str	r3, [r7, #36]	; 0x24
   11a1a:	f010 feef 	bl	227fc <__tfind>
   11a1e:	61f8      	str	r0, [r7, #28]
   11a20:	b114      	cbz	r4, 11a28 <__dcigettext+0xc8>
   11a22:	48a4      	ldr	r0, [pc, #656]	; (11cb4 <__dcigettext+0x354>)
   11a24:	f3af 8000 	nop.w
   11a28:	69fb      	ldr	r3, [r7, #28]
   11a2a:	b14b      	cbz	r3, 11a40 <__dcigettext+0xe0>
   11a2c:	6819      	ldr	r1, [r3, #0]
   11a2e:	f64f 3364 	movw	r3, #64356	; 0xfb64
   11a32:	f2c0 0307 	movt	r3, #7
   11a36:	68ca      	ldr	r2, [r1, #12]
   11a38:	681b      	ldr	r3, [r3, #0]
   11a3a:	429a      	cmp	r2, r3
   11a3c:	f000 8192 	beq.w	11d64 <__dcigettext+0x404>
   11a40:	f64f 3360 	movw	r3, #64352	; 0xfb60
   11a44:	f2c0 0307 	movt	r3, #7
   11a48:	681d      	ldr	r5, [r3, #0]
   11a4a:	b935      	cbnz	r5, 11a5a <__dcigettext+0xfa>
   11a4c:	e17d      	b.n	11d4a <__dcigettext+0x3ea>
   11a4e:	f2c0 8182 	blt.w	11d56 <__dcigettext+0x3f6>
   11a52:	682d      	ldr	r5, [r5, #0]
   11a54:	2d00      	cmp	r5, #0
   11a56:	f000 8178 	beq.w	11d4a <__dcigettext+0x3ea>
   11a5a:	f105 010c 	add.w	r1, r5, #12
   11a5e:	4648      	mov	r0, r9
   11a60:	f00c ff96 	bl	1e990 <strcmp>
   11a64:	1e01      	subs	r1, r0, #0
   11a66:	d1f2      	bne.n	11a4e <__dcigettext+0xee>
   11a68:	686b      	ldr	r3, [r5, #4]
   11a6a:	63bb      	str	r3, [r7, #56]	; 0x38
   11a6c:	781b      	ldrb	r3, [r3, #0]
   11a6e:	2b2f      	cmp	r3, #47	; 0x2f
   11a70:	d018      	beq.n	11aa4 <__dcigettext+0x144>
   11a72:	f010 f9ab 	bl	21dcc <__getcwd>
   11a76:	4604      	mov	r4, r0
   11a78:	2800      	cmp	r0, #0
   11a7a:	f000 8093 	beq.w	11ba4 <__dcigettext+0x244>
   11a7e:	4602      	mov	r2, r0
   11a80:	6bbb      	ldr	r3, [r7, #56]	; 0x38
   11a82:	f641 5164 	movw	r1, #7524	; 0x1d64
   11a86:	f107 0044 	add.w	r0, r7, #68	; 0x44
   11a8a:	f2c0 0105 	movt	r1, #5
   11a8e:	f003 fa4d 	bl	14f2c <___asprintf>
   11a92:	4606      	mov	r6, r0
   11a94:	4620      	mov	r0, r4
   11a96:	f00c f8d7 	bl	1dc48 <__free>
   11a9a:	2e00      	cmp	r6, #0
   11a9c:	f2c0 8188 	blt.w	11db0 <__dcigettext+0x450>
   11aa0:	6c7b      	ldr	r3, [r7, #68]	; 0x44
   11aa2:	63bb      	str	r3, [r7, #56]	; 0x38
   11aa4:	f8d7 009c 	ldr.w	r0, [r7, #156]	; 0x9c
   11aa8:	f644 12a0 	movw	r2, #18848	; 0x49a0
   11aac:	f2c0 0205 	movt	r2, #5
   11ab0:	f644 1314 	movw	r3, #18708	; 0x4914
   11ab4:	f2c0 0305 	movt	r3, #5
   11ab8:	5c16      	ldrb	r6, [r2, r0]
   11aba:	441e      	add	r6, r3
   11abc:	f01a f98a 	bl	2bdd4 <__current_locale_name>
   11ac0:	f641 516c 	movw	r1, #7532	; 0x1d6c
   11ac4:	f2c0 0105 	movt	r1, #5
   11ac8:	4604      	mov	r4, r0
   11aca:	f00c ff61 	bl	1e990 <strcmp>
   11ace:	2800      	cmp	r0, #0
   11ad0:	f040 8160 	bne.w	11d94 <__dcigettext+0x434>
   11ad4:	4648      	mov	r0, r9
   11ad6:	f00d fa73 	bl	1efc0 <strlen>
   11ada:	4680      	mov	r8, r0
   11adc:	60b8      	str	r0, [r7, #8]
   11ade:	4630      	mov	r0, r6
   11ae0:	f00d fa6e 	bl	1efc0 <strlen>
   11ae4:	f641 536c 	movw	r3, #7532	; 0x1d6c
   11ae8:	f2c0 0305 	movt	r3, #5
   11aec:	63fb      	str	r3, [r7, #60]	; 0x3c
   11aee:	f641 5380 	movw	r3, #7552	; 0x1d80
   11af2:	f2c0 0305 	movt	r3, #5
   11af6:	637b      	str	r3, [r7, #52]	; 0x34
   11af8:	f647 73d8 	movw	r3, #32728	; 0x7fd8
   11afc:	f2c0 0307 	movt	r3, #7
   11b00:	61bb      	str	r3, [r7, #24]
   11b02:	4631      	mov	r1, r6
   11b04:	4440      	add	r0, r8
   11b06:	3013      	adds	r0, #19
   11b08:	f020 0007 	bic.w	r0, r0, #7
   11b0c:	ebad 0d00 	sub.w	sp, sp, r0
   11b10:	ab02      	add	r3, sp, #8
   11b12:	633b      	str	r3, [r7, #48]	; 0x30
   11b14:	4618      	mov	r0, r3
   11b16:	f00d f8b3 	bl	1ec80 <__stpcpy>
   11b1a:	f244 13bc 	movw	r3, #16828	; 0x41bc
   11b1e:	f2c0 0305 	movt	r3, #5
   11b22:	4642      	mov	r2, r8
   11b24:	4649      	mov	r1, r9
   11b26:	881b      	ldrh	r3, [r3, #0]
   11b28:	f820 3b01 	strh.w	r3, [r0], #1
   11b2c:	f00e f99e 	bl	1fe6c <__mempcpy>
   11b30:	f641 537c 	movw	r3, #7548	; 0x1d7c
   11b34:	f2c0 0305 	movt	r3, #5
   11b38:	4602      	mov	r2, r0
   11b3a:	6818      	ldr	r0, [r3, #0]
   11b3c:	6010      	str	r0, [r2, #0]
   11b3e:	4620      	mov	r0, r4
   11b40:	f00d fa3e 	bl	1efc0 <strlen>
   11b44:	300f      	adds	r0, #15
   11b46:	f020 0007 	bic.w	r0, r0, #7
   11b4a:	ebad 0d00 	sub.w	sp, sp, r0
   11b4e:	f10d 0808 	add.w	r8, sp, #8
   11b52:	7823      	ldrb	r3, [r4, #0]
   11b54:	2b3a      	cmp	r3, #58	; 0x3a
   11b56:	d07a      	beq.n	11c4e <__dcigettext+0x2ee>
   11b58:	2b00      	cmp	r3, #0
   11b5a:	d17a      	bne.n	11c52 <__dcigettext+0x2f2>
   11b5c:	2343      	movs	r3, #67	; 0x43
   11b5e:	f8a8 3000 	strh.w	r3, [r8]
   11b62:	6bf9      	ldr	r1, [r7, #60]	; 0x3c
   11b64:	4640      	mov	r0, r8
   11b66:	f00c ff13 	bl	1e990 <strcmp>
   11b6a:	b1d8      	cbz	r0, 11ba4 <__dcigettext+0x244>
   11b6c:	6b79      	ldr	r1, [r7, #52]	; 0x34
   11b6e:	4640      	mov	r0, r8
   11b70:	f00c ff0e 	bl	1e990 <strcmp>
   11b74:	b1b0      	cbz	r0, 11ba4 <__dcigettext+0x244>
   11b76:	462b      	mov	r3, r5
   11b78:	6b3a      	ldr	r2, [r7, #48]	; 0x30
   11b7a:	4641      	mov	r1, r8
   11b7c:	6bb8      	ldr	r0, [r7, #56]	; 0x38
   11b7e:	f000 f997 	bl	11eb0 <_nl_find_domain>
   11b82:	62f8      	str	r0, [r7, #44]	; 0x2c
   11b84:	2800      	cmp	r0, #0
   11b86:	d0e4      	beq.n	11b52 <__dcigettext+0x1f2>
   11b88:	f107 0648 	add.w	r6, r7, #72	; 0x48
   11b8c:	2301      	movs	r3, #1
   11b8e:	9600      	str	r6, [sp, #0]
   11b90:	4652      	mov	r2, sl
   11b92:	4629      	mov	r1, r5
   11b94:	f7ff fb10 	bl	111b8 <_nl_find_msg>
   11b98:	2800      	cmp	r0, #0
   11b9a:	d078      	beq.n	11c8e <__dcigettext+0x32e>
   11b9c:	1c42      	adds	r2, r0, #1
   11b9e:	4603      	mov	r3, r0
   11ba0:	f040 80a4 	bne.w	11cec <__dcigettext+0x38c>
   11ba4:	6c78      	ldr	r0, [r7, #68]	; 0x44
   11ba6:	f00c f84f 	bl	1dc48 <__free>
   11baa:	6a7b      	ldr	r3, [r7, #36]	; 0x24
   11bac:	b143      	cbz	r3, 11bc0 <__dcigettext+0x260>
   11bae:	4840      	ldr	r0, [pc, #256]	; (11cb0 <__dcigettext+0x350>)
   11bb0:	f3af 8000 	nop.w
   11bb4:	f249 7038 	movw	r0, #38712	; 0x9738
   11bb8:	f2c0 0007 	movt	r0, #7
   11bbc:	f3af 8000 	nop.w
   11bc0:	693a      	ldr	r2, [r7, #16]
   11bc2:	4b3d      	ldr	r3, [pc, #244]	; (11cb8 <__dcigettext+0x358>)
   11bc4:	4611      	mov	r1, r2
   11bc6:	697a      	ldr	r2, [r7, #20]
   11bc8:	447b      	add	r3, pc
   11bca:	681b      	ldr	r3, [r3, #0]
   11bcc:	50ca      	str	r2, [r1, r3]
   11bce:	f8d7 3098 	ldr.w	r3, [r7, #152]	; 0x98
   11bd2:	6aba      	ldr	r2, [r7, #40]	; 0x28
   11bd4:	2a00      	cmp	r2, #0
   11bd6:	bf18      	it	ne
   11bd8:	2b01      	cmpne	r3, #1
   11bda:	d112      	bne.n	11c02 <__dcigettext+0x2a2>
   11bdc:	4653      	mov	r3, sl
   11bde:	6efa      	ldr	r2, [r7, #108]	; 0x6c
   11be0:	4618      	mov	r0, r3
   11be2:	f8db 3000 	ldr.w	r3, [fp]
   11be6:	429a      	cmp	r2, r3
   11be8:	f040 8158 	bne.w	11e9c <__dcigettext+0x53c>
   11bec:	3774      	adds	r7, #116	; 0x74
   11bee:	46bd      	mov	sp, r7
   11bf0:	e8bd 8ff0 	ldmia.w	sp!, {r4, r5, r6, r7, r8, r9, sl, fp, pc}
   11bf4:	6abb      	ldr	r3, [r7, #40]	; 0x28
   11bf6:	f8d7 2098 	ldr.w	r2, [r7, #152]	; 0x98
   11bfa:	2a01      	cmp	r2, #1
   11bfc:	bf18      	it	ne
   11bfe:	2b00      	cmpne	r3, #0
   11c00:	d0ec      	beq.n	11bdc <__dcigettext+0x27c>
   11c02:	6a3b      	ldr	r3, [r7, #32]
   11c04:	e7eb      	b.n	11bde <__dcigettext+0x27e>
   11c06:	b158      	cbz	r0, 11c20 <__dcigettext+0x2c0>
   11c08:	f8d7 009c 	ldr.w	r0, [r7, #156]	; 0x9c
   11c0c:	65fd      	str	r5, [r7, #92]	; 0x5c
   11c0e:	66b9      	str	r1, [r7, #104]	; 0x68
   11c10:	f8c7 904c 	str.w	r9, [r7, #76]	; 0x4c
   11c14:	6538      	str	r0, [r7, #80]	; 0x50
   11c16:	f01a f8dd 	bl	2bdd4 <__current_locale_name>
   11c1a:	60f8      	str	r0, [r7, #12]
   11c1c:	6578      	str	r0, [r7, #84]	; 0x54
   11c1e:	e6ec      	b.n	119fa <__dcigettext+0x9a>
   11c20:	f248 3340 	movw	r3, #33600	; 0x8340
   11c24:	f2c0 0307 	movt	r3, #7
   11c28:	f8d7 009c 	ldr.w	r0, [r7, #156]	; 0x9c
   11c2c:	2200      	movs	r2, #0
   11c2e:	f8d3 9000 	ldr.w	r9, [r3]
   11c32:	f8c7 a068 	str.w	sl, [r7, #104]	; 0x68
   11c36:	6538      	str	r0, [r7, #80]	; 0x50
   11c38:	65fa      	str	r2, [r7, #92]	; 0x5c
   11c3a:	f8c7 904c 	str.w	r9, [r7, #76]	; 0x4c
   11c3e:	f01a f8c9 	bl	2bdd4 <__current_locale_name>
   11c42:	60f8      	str	r0, [r7, #12]
   11c44:	6578      	str	r0, [r7, #84]	; 0x54
   11c46:	2d00      	cmp	r5, #0
   11c48:	f47f aed4 	bne.w	119f4 <__dcigettext+0x94>
   11c4c:	e6d5      	b.n	119fa <__dcigettext+0x9a>
   11c4e:	3401      	adds	r4, #1
   11c50:	e77f      	b.n	11b52 <__dcigettext+0x1f2>
   11c52:	1c60      	adds	r0, r4, #1
   11c54:	4641      	mov	r1, r8
   11c56:	f801 3b01 	strb.w	r3, [r1], #1
   11c5a:	4604      	mov	r4, r0
   11c5c:	7803      	ldrb	r3, [r0, #0]
   11c5e:	3001      	adds	r0, #1
   11c60:	f1b3 023a 	subs.w	r2, r3, #58	; 0x3a
   11c64:	bf18      	it	ne
   11c66:	2201      	movne	r2, #1
   11c68:	2b00      	cmp	r3, #0
   11c6a:	bf08      	it	eq
   11c6c:	2200      	moveq	r2, #0
   11c6e:	2a00      	cmp	r2, #0
   11c70:	d1f1      	bne.n	11c56 <__dcigettext+0x2f6>
   11c72:	69bb      	ldr	r3, [r7, #24]
   11c74:	700a      	strb	r2, [r1, #0]
   11c76:	681b      	ldr	r3, [r3, #0]
   11c78:	2b00      	cmp	r3, #0
   11c7a:	f43f af72 	beq.w	11b62 <__dcigettext+0x202>
   11c7e:	212f      	movs	r1, #47	; 0x2f
   11c80:	4640      	mov	r0, r8
   11c82:	f00c fe25 	bl	1e8d0 <strchr>
   11c86:	2800      	cmp	r0, #0
   11c88:	f47f af63 	bne.w	11b52 <__dcigettext+0x1f2>
   11c8c:	e769      	b.n	11b62 <__dcigettext+0x202>
   11c8e:	6afa      	ldr	r2, [r7, #44]	; 0x2c
   11c90:	6913      	ldr	r3, [r2, #16]
   11c92:	2b00      	cmp	r3, #0
   11c94:	f43f af5d 	beq.w	11b52 <__dcigettext+0x1f2>
   11c98:	3210      	adds	r2, #16
   11c9a:	4601      	mov	r1, r0
   11c9c:	607c      	str	r4, [r7, #4]
   11c9e:	4618      	mov	r0, r3
   11ca0:	f8c7 8000 	str.w	r8, [r7]
   11ca4:	4614      	mov	r4, r2
   11ca6:	4688      	mov	r8, r1
   11ca8:	e00e      	b.n	11cc8 <__dcigettext+0x368>
   11caa:	bf00      	nop
   11cac:	000666ae 	.word	0x000666ae
   11cb0:	000793c8 	.word	0x000793c8
   11cb4:	000793e8 	.word	0x000793e8
   11cb8:	00066494 	.word	0x00066494
   11cbc:	f854 0f04 	ldr.w	r0, [r4, #4]!
   11cc0:	f108 0801 	add.w	r8, r8, #1
   11cc4:	2800      	cmp	r0, #0
   11cc6:	d07f      	beq.n	11dc8 <__dcigettext+0x468>
   11cc8:	4629      	mov	r1, r5
   11cca:	9600      	str	r6, [sp, #0]
   11ccc:	2301      	movs	r3, #1
   11cce:	4652      	mov	r2, sl
   11cd0:	f7ff fa72 	bl	111b8 <_nl_find_msg>
   11cd4:	1c41      	adds	r1, r0, #1
   11cd6:	f43f af65 	beq.w	11ba4 <__dcigettext+0x244>
   11cda:	2800      	cmp	r0, #0
   11cdc:	d0ee      	beq.n	11cbc <__dcigettext+0x35c>
   11cde:	6af9      	ldr	r1, [r7, #44]	; 0x2c
   11ce0:	4642      	mov	r2, r8
   11ce2:	3204      	adds	r2, #4
   11ce4:	4603      	mov	r3, r0
   11ce6:	f851 2022 	ldr.w	r2, [r1, r2, lsl #2]
   11cea:	62fa      	str	r2, [r7, #44]	; 0x2c
   11cec:	6c78      	ldr	r0, [r7, #68]	; 0x44
   11cee:	63fb      	str	r3, [r7, #60]	; 0x3c
   11cf0:	f00b ffaa 	bl	1dc48 <__free>
   11cf4:	69fa      	ldr	r2, [r7, #28]
   11cf6:	6bfb      	ldr	r3, [r7, #60]	; 0x3c
   11cf8:	2a00      	cmp	r2, #0
   11cfa:	d072      	beq.n	11de2 <__dcigettext+0x482>
   11cfc:	69fa      	ldr	r2, [r7, #28]
   11cfe:	f64f 3164 	movw	r1, #64356	; 0xfb64
   11d02:	f2c0 0107 	movt	r1, #7
   11d06:	6afc      	ldr	r4, [r7, #44]	; 0x2c
   11d08:	6812      	ldr	r2, [r2, #0]
   11d0a:	6808      	ldr	r0, [r1, #0]
   11d0c:	6cb9      	ldr	r1, [r7, #72]	; 0x48
   11d0e:	e9c2 4304 	strd	r4, r3, [r2, #16]
   11d12:	60d0      	str	r0, [r2, #12]
   11d14:	6191      	str	r1, [r2, #24]
   11d16:	6939      	ldr	r1, [r7, #16]
   11d18:	4a61      	ldr	r2, [pc, #388]	; (11ea0 <__dcigettext+0x540>)
   11d1a:	4608      	mov	r0, r1
   11d1c:	6979      	ldr	r1, [r7, #20]
   11d1e:	447a      	add	r2, pc
   11d20:	6812      	ldr	r2, [r2, #0]
   11d22:	5081      	str	r1, [r0, r2]
   11d24:	6aba      	ldr	r2, [r7, #40]	; 0x28
   11d26:	2a00      	cmp	r2, #0
   11d28:	d151      	bne.n	11dce <__dcigettext+0x46e>
   11d2a:	6a7a      	ldr	r2, [r7, #36]	; 0x24
   11d2c:	2a00      	cmp	r2, #0
   11d2e:	f43f af56 	beq.w	11bde <__dcigettext+0x27e>
   11d32:	485c      	ldr	r0, [pc, #368]	; (11ea4 <__dcigettext+0x544>)
   11d34:	63fb      	str	r3, [r7, #60]	; 0x3c
   11d36:	f3af 8000 	nop.w
   11d3a:	f249 7038 	movw	r0, #38712	; 0x9738
   11d3e:	f2c0 0007 	movt	r0, #7
   11d42:	f3af 8000 	nop.w
   11d46:	6bfb      	ldr	r3, [r7, #60]	; 0x3c
   11d48:	e749      	b.n	11bde <__dcigettext+0x27e>
   11d4a:	f641 5388 	movw	r3, #7560	; 0x1d88
   11d4e:	f2c0 0305 	movt	r3, #5
   11d52:	63bb      	str	r3, [r7, #56]	; 0x38
   11d54:	e6a6      	b.n	11aa4 <__dcigettext+0x144>
   11d56:	f641 5388 	movw	r3, #7560	; 0x1d88
   11d5a:	2500      	movs	r5, #0
   11d5c:	f2c0 0305 	movt	r3, #5
   11d60:	63bb      	str	r3, [r7, #56]	; 0x38
   11d62:	e69f      	b.n	11aa4 <__dcigettext+0x144>
   11d64:	6aba      	ldr	r2, [r7, #40]	; 0x28
   11d66:	694b      	ldr	r3, [r1, #20]
   11d68:	bb22      	cbnz	r2, 11db4 <__dcigettext+0x454>
   11d6a:	6a7a      	ldr	r2, [r7, #36]	; 0x24
   11d6c:	b152      	cbz	r2, 11d84 <__dcigettext+0x424>
   11d6e:	484d      	ldr	r0, [pc, #308]	; (11ea4 <__dcigettext+0x544>)
   11d70:	63fb      	str	r3, [r7, #60]	; 0x3c
   11d72:	f3af 8000 	nop.w
   11d76:	f249 7038 	movw	r0, #38712	; 0x9738
   11d7a:	f2c0 0007 	movt	r0, #7
   11d7e:	f3af 8000 	nop.w
   11d82:	6bfb      	ldr	r3, [r7, #60]	; 0x3c
   11d84:	6939      	ldr	r1, [r7, #16]
   11d86:	4a48      	ldr	r2, [pc, #288]	; (11ea8 <__dcigettext+0x548>)
   11d88:	4608      	mov	r0, r1
   11d8a:	6979      	ldr	r1, [r7, #20]
   11d8c:	447a      	add	r2, pc
   11d8e:	6812      	ldr	r2, [r2, #0]
   11d90:	5081      	str	r1, [r0, r2]
   11d92:	e724      	b.n	11bde <__dcigettext+0x27e>
   11d94:	f641 5070 	movw	r0, #7536	; 0x1d70
   11d98:	f2c0 0005 	movt	r0, #5
   11d9c:	f002 fc1e 	bl	145dc <getenv>
   11da0:	2800      	cmp	r0, #0
   11da2:	f43f ae97 	beq.w	11ad4 <__dcigettext+0x174>
   11da6:	7803      	ldrb	r3, [r0, #0]
   11da8:	2b00      	cmp	r3, #0
   11daa:	bf18      	it	ne
   11dac:	4604      	movne	r4, r0
   11dae:	e691      	b.n	11ad4 <__dcigettext+0x174>
   11db0:	2300      	movs	r3, #0
   11db2:	e714      	b.n	11bde <__dcigettext+0x27e>
   11db4:	6908      	ldr	r0, [r1, #16]
   11db6:	461a      	mov	r2, r3
   11db8:	698b      	ldr	r3, [r1, #24]
   11dba:	f8d7 1098 	ldr.w	r1, [r7, #152]	; 0x98
   11dbe:	6880      	ldr	r0, [r0, #8]
   11dc0:	f7ff f9de 	bl	11180 <plural_lookup.isra.2>
   11dc4:	4603      	mov	r3, r0
   11dc6:	e7d0      	b.n	11d6a <__dcigettext+0x40a>
   11dc8:	e9d7 8400 	ldrd	r8, r4, [r7]
   11dcc:	e6c1      	b.n	11b52 <__dcigettext+0x1f2>
   11dce:	461a      	mov	r2, r3
   11dd0:	6afb      	ldr	r3, [r7, #44]	; 0x2c
   11dd2:	f8d7 1098 	ldr.w	r1, [r7, #152]	; 0x98
   11dd6:	6898      	ldr	r0, [r3, #8]
   11dd8:	6cbb      	ldr	r3, [r7, #72]	; 0x48
   11dda:	f7ff f9d1 	bl	11180 <plural_lookup.isra.2>
   11dde:	4603      	mov	r3, r0
   11de0:	e7a3      	b.n	11d2a <__dcigettext+0x3ca>
   11de2:	4650      	mov	r0, sl
   11de4:	f00d f8ec 	bl	1efc0 <strlen>
   11de8:	1c44      	adds	r4, r0, #1
   11dea:	68f8      	ldr	r0, [r7, #12]
   11dec:	f00d f8e8 	bl	1efc0 <strlen>
   11df0:	68be      	ldr	r6, [r7, #8]
   11df2:	f106 021e 	add.w	r2, r6, #30
   11df6:	4410      	add	r0, r2
   11df8:	4420      	add	r0, r4
   11dfa:	f00b fccf 	bl	1d79c <__libc_malloc>
   11dfe:	6bfb      	ldr	r3, [r7, #60]	; 0x3c
   11e00:	4605      	mov	r5, r0
   11e02:	2800      	cmp	r0, #0
   11e04:	d087      	beq.n	11d16 <__dcigettext+0x3b6>
   11e06:	4622      	mov	r2, r4
   11e08:	4651      	mov	r1, sl
   11e0a:	301c      	adds	r0, #28
   11e0c:	4634      	mov	r4, r6
   11e0e:	f00e f82d 	bl	1fe6c <__mempcpy>
   11e12:	3401      	adds	r4, #1
   11e14:	4649      	mov	r1, r9
   11e16:	4622      	mov	r2, r4
   11e18:	1906      	adds	r6, r0, r4
   11e1a:	4680      	mov	r8, r0
   11e1c:	f7fe e9ac 	blx	10178 <__rel_iplt_end+0x10>
   11e20:	68f9      	ldr	r1, [r7, #12]
   11e22:	4630      	mov	r0, r6
   11e24:	f00c ff34 	bl	1ec90 <strcpy>
   11e28:	f8d7 309c 	ldr.w	r3, [r7, #156]	; 0x9c
   11e2c:	f64f 3164 	movw	r1, #64356	; 0xfb64
   11e30:	f2c0 0107 	movt	r1, #7
   11e34:	6cb8      	ldr	r0, [r7, #72]	; 0x48
   11e36:	f240 0200 	movw	r2, #0
   11e3a:	606b      	str	r3, [r5, #4]
   11e3c:	f2c0 0200 	movt	r2, #0
   11e40:	6afb      	ldr	r3, [r7, #44]	; 0x2c
   11e42:	6809      	ldr	r1, [r1, #0]
   11e44:	60ae      	str	r6, [r5, #8]
   11e46:	612b      	str	r3, [r5, #16]
   11e48:	6bfb      	ldr	r3, [r7, #60]	; 0x3c
   11e4a:	f8c5 8000 	str.w	r8, [r5]
   11e4e:	60e9      	str	r1, [r5, #12]
   11e50:	616b      	str	r3, [r5, #20]
   11e52:	61a8      	str	r0, [r5, #24]
   11e54:	b11a      	cbz	r2, 11e5e <__dcigettext+0x4fe>
   11e56:	4815      	ldr	r0, [pc, #84]	; (11eac <__dcigettext+0x54c>)
   11e58:	f3af 8000 	nop.w
   11e5c:	6bfb      	ldr	r3, [r7, #60]	; 0x3c
   11e5e:	f241 1241 	movw	r2, #4417	; 0x1141
   11e62:	f249 31ac 	movw	r1, #37804	; 0x93ac
   11e66:	f2c0 0201 	movt	r2, #1
   11e6a:	f2c0 0107 	movt	r1, #7
   11e6e:	4628      	mov	r0, r5
   11e70:	63fb      	str	r3, [r7, #60]	; 0x3c
   11e72:	f010 fc53 	bl	2271c <__tsearch>
   11e76:	6a7a      	ldr	r2, [r7, #36]	; 0x24
   11e78:	6bfb      	ldr	r3, [r7, #60]	; 0x3c
   11e7a:	4604      	mov	r4, r0
   11e7c:	b11a      	cbz	r2, 11e86 <__dcigettext+0x526>
   11e7e:	480b      	ldr	r0, [pc, #44]	; (11eac <__dcigettext+0x54c>)
   11e80:	f3af 8000 	nop.w
   11e84:	6bfb      	ldr	r3, [r7, #60]	; 0x3c
   11e86:	b11c      	cbz	r4, 11e90 <__dcigettext+0x530>
   11e88:	6822      	ldr	r2, [r4, #0]
   11e8a:	42aa      	cmp	r2, r5
   11e8c:	f43f af43 	beq.w	11d16 <__dcigettext+0x3b6>
   11e90:	4628      	mov	r0, r5
   11e92:	63fb      	str	r3, [r7, #60]	; 0x3c
   11e94:	f00b fed8 	bl	1dc48 <__free>
   11e98:	6bfb      	ldr	r3, [r7, #60]	; 0x3c
   11e9a:	e73c      	b.n	11d16 <__dcigettext+0x3b6>
   11e9c:	f011 fa28 	bl	232f0 <__stack_chk_fail>
   11ea0:	0006633e 	.word	0x0006633e
   11ea4:	000793c8 	.word	0x000793c8
   11ea8:	000662d0 	.word	0x000662d0
   11eac:	000793e8 	.word	0x000793e8

00011eb0 <_nl_find_domain>:
   11eb0:	e92d 4ff0 	stmdb	sp!, {r4, r5, r6, r7, r8, r9, sl, fp, lr}
   11eb4:	f647 3598 	movw	r5, #31640	; 0x7b98
   11eb8:	f2c0 0507 	movt	r5, #7
   11ebc:	4607      	mov	r7, r0
   11ebe:	b091      	sub	sp, #68	; 0x44
   11ec0:	4688      	mov	r8, r1
   11ec2:	6828      	ldr	r0, [r5, #0]
   11ec4:	f240 0100 	movw	r1, #0
   11ec8:	f2c0 0100 	movt	r1, #0
   11ecc:	4691      	mov	r9, r2
   11ece:	469a      	mov	sl, r3
   11ed0:	900f      	str	r0, [sp, #60]	; 0x3c
   11ed2:	b129      	cbz	r1, 11ee0 <_nl_find_domain+0x30>
   11ed4:	f249 4008 	movw	r0, #37896	; 0x9408
   11ed8:	f2c0 0007 	movt	r0, #7
   11edc:	f3af 8000 	nop.w
   11ee0:	4638      	mov	r0, r7
   11ee2:	f240 0600 	movw	r6, #0
   11ee6:	f00d f86b 	bl	1efc0 <strlen>
   11eea:	2200      	movs	r2, #0
   11eec:	4613      	mov	r3, r2
   11eee:	9206      	str	r2, [sp, #24]
   11ef0:	e9cd 2203 	strd	r2, r2, [sp, #12]
   11ef4:	4639      	mov	r1, r7
   11ef6:	e9cd 2201 	strd	r2, r2, [sp, #4]
   11efa:	f2c0 0600 	movt	r6, #0
   11efe:	f8cd 9014 	str.w	r9, [sp, #20]
   11f02:	f8cd 8000 	str.w	r8, [sp]
   11f06:	1c42      	adds	r2, r0, #1
   11f08:	4856      	ldr	r0, [pc, #344]	; (12064 <_nl_find_domain+0x1b4>)
   11f0a:	f001 fa07 	bl	1331c <_nl_make_l10nflist>
   11f0e:	4604      	mov	r4, r0
   11f10:	b12e      	cbz	r6, 11f1e <_nl_find_domain+0x6e>
   11f12:	f249 4008 	movw	r0, #37896	; 0x9408
   11f16:	f2c0 0007 	movt	r0, #7
   11f1a:	f3af 8000 	nop.w
   11f1e:	b33c      	cbz	r4, 11f70 <_nl_find_domain+0xc0>
   11f20:	6863      	ldr	r3, [r4, #4]
   11f22:	2b00      	cmp	r3, #0
   11f24:	dd1f      	ble.n	11f66 <_nl_find_domain+0xb6>
   11f26:	68a3      	ldr	r3, [r4, #8]
   11f28:	b143      	cbz	r3, 11f3c <_nl_find_domain+0x8c>
   11f2a:	9a0f      	ldr	r2, [sp, #60]	; 0x3c
   11f2c:	4620      	mov	r0, r4
   11f2e:	682b      	ldr	r3, [r5, #0]
   11f30:	429a      	cmp	r2, r3
   11f32:	f040 8094 	bne.w	1205e <_nl_find_domain+0x1ae>
   11f36:	b011      	add	sp, #68	; 0x44
   11f38:	e8bd 8ff0 	ldmia.w	sp!, {r4, r5, r6, r7, r8, r9, sl, fp, pc}
   11f3c:	6920      	ldr	r0, [r4, #16]
   11f3e:	2800      	cmp	r0, #0
   11f40:	d0f3      	beq.n	11f2a <_nl_find_domain+0x7a>
   11f42:	f104 0610 	add.w	r6, r4, #16
   11f46:	e007      	b.n	11f58 <_nl_find_domain+0xa8>
   11f48:	f856 3b04 	ldr.w	r3, [r6], #4
   11f4c:	689b      	ldr	r3, [r3, #8]
   11f4e:	2b00      	cmp	r3, #0
   11f50:	d1eb      	bne.n	11f2a <_nl_find_domain+0x7a>
   11f52:	6830      	ldr	r0, [r6, #0]
   11f54:	2800      	cmp	r0, #0
   11f56:	d0e8      	beq.n	11f2a <_nl_find_domain+0x7a>
   11f58:	6843      	ldr	r3, [r0, #4]
   11f5a:	2b00      	cmp	r3, #0
   11f5c:	dcf4      	bgt.n	11f48 <_nl_find_domain+0x98>
   11f5e:	4651      	mov	r1, sl
   11f60:	f000 f882 	bl	12068 <_nl_load_domain>
   11f64:	e7f0      	b.n	11f48 <_nl_find_domain+0x98>
   11f66:	4651      	mov	r1, sl
   11f68:	4620      	mov	r0, r4
   11f6a:	f000 f87d 	bl	12068 <_nl_load_domain>
   11f6e:	e7da      	b.n	11f26 <_nl_find_domain+0x76>
   11f70:	4640      	mov	r0, r8
   11f72:	f001 f943 	bl	131fc <_nl_expand_alias>
   11f76:	9009      	str	r0, [sp, #36]	; 0x24
   11f78:	b168      	cbz	r0, 11f96 <_nl_find_domain+0xe6>
   11f7a:	f00d f821 	bl	1efc0 <strlen>
   11f7e:	f100 0b01 	add.w	fp, r0, #1
   11f82:	4658      	mov	r0, fp
   11f84:	f00b fc0a 	bl	1d79c <__libc_malloc>
   11f88:	4680      	mov	r8, r0
   11f8a:	2800      	cmp	r0, #0
   11f8c:	d0cd      	beq.n	11f2a <_nl_find_domain+0x7a>
   11f8e:	465a      	mov	r2, fp
   11f90:	9909      	ldr	r1, [sp, #36]	; 0x24
   11f92:	f7fe e8f2 	blx	10178 <__rel_iplt_end+0x10>
   11f96:	ab0e      	add	r3, sp, #56	; 0x38
   11f98:	aa0d      	add	r2, sp, #52	; 0x34
   11f9a:	9301      	str	r3, [sp, #4]
   11f9c:	a90a      	add	r1, sp, #40	; 0x28
   11f9e:	9200      	str	r2, [sp, #0]
   11fa0:	ab0c      	add	r3, sp, #48	; 0x30
   11fa2:	aa0b      	add	r2, sp, #44	; 0x2c
   11fa4:	4640      	mov	r0, r8
   11fa6:	f001 fbf3 	bl	13790 <_nl_explode_name>
   11faa:	f1b0 3fff 	cmp.w	r0, #4294967295	; 0xffffffff
   11fae:	4683      	mov	fp, r0
   11fb0:	d0bb      	beq.n	11f2a <_nl_find_domain+0x7a>
   11fb2:	f240 0300 	movw	r3, #0
   11fb6:	f2c0 0300 	movt	r3, #0
   11fba:	b12b      	cbz	r3, 11fc8 <_nl_find_domain+0x118>
   11fbc:	f249 4008 	movw	r0, #37896	; 0x9408
   11fc0:	f2c0 0007 	movt	r0, #7
   11fc4:	f3af 8000 	nop.w
   11fc8:	4638      	mov	r0, r7
   11fca:	f00c fff9 	bl	1efc0 <strlen>
   11fce:	9a0b      	ldr	r2, [sp, #44]	; 0x2c
   11fd0:	9b0e      	ldr	r3, [sp, #56]	; 0x38
   11fd2:	4639      	mov	r1, r7
   11fd4:	9c0d      	ldr	r4, [sp, #52]	; 0x34
   11fd6:	9f0c      	ldr	r7, [sp, #48]	; 0x30
   11fd8:	9204      	str	r2, [sp, #16]
   11fda:	9a0a      	ldr	r2, [sp, #40]	; 0x28
   11fdc:	e9cd 4302 	strd	r4, r3, [sp, #8]
   11fe0:	2401      	movs	r4, #1
   11fe2:	f8cd 9014 	str.w	r9, [sp, #20]
   11fe6:	465b      	mov	r3, fp
   11fe8:	9200      	str	r2, [sp, #0]
   11fea:	9406      	str	r4, [sp, #24]
   11fec:	9701      	str	r7, [sp, #4]
   11fee:	1902      	adds	r2, r0, r4
   11ff0:	481c      	ldr	r0, [pc, #112]	; (12064 <_nl_find_domain+0x1b4>)
   11ff2:	f001 f993 	bl	1331c <_nl_make_l10nflist>
   11ff6:	4604      	mov	r4, r0
   11ff8:	b12e      	cbz	r6, 12006 <_nl_find_domain+0x156>
   11ffa:	f249 4008 	movw	r0, #37896	; 0x9408
   11ffe:	f2c0 0007 	movt	r0, #7
   12002:	f3af 8000 	nop.w
   12006:	b14c      	cbz	r4, 1201c <_nl_find_domain+0x16c>
   12008:	6863      	ldr	r3, [r4, #4]
   1200a:	2b00      	cmp	r3, #0
   1200c:	dd22      	ble.n	12054 <_nl_find_domain+0x1a4>
   1200e:	68a3      	ldr	r3, [r4, #8]
   12010:	b15b      	cbz	r3, 1202a <_nl_find_domain+0x17a>
   12012:	9b09      	ldr	r3, [sp, #36]	; 0x24
   12014:	b113      	cbz	r3, 1201c <_nl_find_domain+0x16c>
   12016:	4640      	mov	r0, r8
   12018:	f00b fe16 	bl	1dc48 <__free>
   1201c:	f01b 0f01 	tst.w	fp, #1
   12020:	d083      	beq.n	11f2a <_nl_find_domain+0x7a>
   12022:	980e      	ldr	r0, [sp, #56]	; 0x38
   12024:	f00b fe10 	bl	1dc48 <__free>
   12028:	e77f      	b.n	11f2a <_nl_find_domain+0x7a>
   1202a:	6920      	ldr	r0, [r4, #16]
   1202c:	2800      	cmp	r0, #0
   1202e:	d0f0      	beq.n	12012 <_nl_find_domain+0x162>
   12030:	f104 0610 	add.w	r6, r4, #16
   12034:	e007      	b.n	12046 <_nl_find_domain+0x196>
   12036:	f856 3b04 	ldr.w	r3, [r6], #4
   1203a:	689b      	ldr	r3, [r3, #8]
   1203c:	2b00      	cmp	r3, #0
   1203e:	d1e8      	bne.n	12012 <_nl_find_domain+0x162>
   12040:	6830      	ldr	r0, [r6, #0]
   12042:	2800      	cmp	r0, #0
   12044:	d0e5      	beq.n	12012 <_nl_find_domain+0x162>
   12046:	6843      	ldr	r3, [r0, #4]
   12048:	2b00      	cmp	r3, #0
   1204a:	dcf4      	bgt.n	12036 <_nl_find_domain+0x186>
   1204c:	4651      	mov	r1, sl
   1204e:	f000 f80b 	bl	12068 <_nl_load_domain>
   12052:	e7f0      	b.n	12036 <_nl_find_domain+0x186>
   12054:	4651      	mov	r1, sl
   12056:	4620      	mov	r0, r4
   12058:	f000 f806 	bl	12068 <_nl_load_domain>
   1205c:	e7d7      	b.n	1200e <_nl_find_domain+0x15e>
   1205e:	f011 f947 	bl	232f0 <__stack_chk_fail>
   12062:	bf00      	nop
   12064:	00079428 	.word	0x00079428

00012068 <_nl_load_domain>:
   12068:	e92d 4ff0 	stmdb	sp!, {r4, r5, r6, r7, r8, r9, sl, fp, lr}
   1206c:	f249 442c 	movw	r4, #37932	; 0x942c
   12070:	f2c0 0407 	movt	r4, #7
   12074:	f647 3b98 	movw	fp, #31640	; 0x7b98
   12078:	f2c0 0b07 	movt	fp, #7
   1207c:	ee1d 5f70 	mrc	15, 0, r5, cr13, cr0, {3}
   12080:	68a3      	ldr	r3, [r4, #8]
   12082:	f5a5 6698 	sub.w	r6, r5, #1216	; 0x4c0
   12086:	f8db 2000 	ldr.w	r2, [fp]
   1208a:	b0b9      	sub	sp, #228	; 0xe4
   1208c:	42b3      	cmp	r3, r6
   1208e:	4680      	mov	r8, r0
   12090:	4689      	mov	r9, r1
   12092:	9237      	str	r2, [sp, #220]	; 0xdc
   12094:	d00d      	beq.n	120b2 <_nl_load_domain+0x4a>
   12096:	2301      	movs	r3, #1
   12098:	e854 2f00 	ldrex	r2, [r4]
   1209c:	2a00      	cmp	r2, #0
   1209e:	d105      	bne.n	120ac <_nl_load_domain+0x44>
   120a0:	e844 3100 	strex	r1, r3, [r4]
   120a4:	2900      	cmp	r1, #0
   120a6:	d1f7      	bne.n	12098 <_nl_load_domain+0x30>
   120a8:	f3bf 8f5b 	dmb	ish
   120ac:	f040 8193 	bne.w	123d6 <_nl_load_domain+0x36e>
   120b0:	60a6      	str	r6, [r4, #8]
   120b2:	f8d8 1004 	ldr.w	r1, [r8, #4]
   120b6:	6863      	ldr	r3, [r4, #4]
   120b8:	3301      	adds	r3, #1
   120ba:	6063      	str	r3, [r4, #4]
   120bc:	b979      	cbnz	r1, 120de <_nl_load_domain+0x76>
   120be:	f8d8 0000 	ldr.w	r0, [r8]
   120c2:	f04f 32ff 	mov.w	r2, #4294967295	; 0xffffffff
   120c6:	e9c8 2101 	strd	r2, r1, [r8, #4]
   120ca:	b128      	cbz	r0, 120d8 <_nl_load_domain+0x70>
   120cc:	f00f fc5a 	bl	21984 <__open_nocancel>
   120d0:	1c43      	adds	r3, r0, #1
   120d2:	9003      	str	r0, [sp, #12]
   120d4:	d125      	bne.n	12122 <_nl_load_domain+0xba>
   120d6:	6863      	ldr	r3, [r4, #4]
   120d8:	2201      	movs	r2, #1
   120da:	f8c8 2004 	str.w	r2, [r8, #4]
   120de:	3b01      	subs	r3, #1
   120e0:	6063      	str	r3, [r4, #4]
   120e2:	b143      	cbz	r3, 120f6 <_nl_load_domain+0x8e>
   120e4:	9a37      	ldr	r2, [sp, #220]	; 0xdc
   120e6:	f8db 3000 	ldr.w	r3, [fp]
   120ea:	429a      	cmp	r2, r3
   120ec:	f040 82d6 	bne.w	1269c <_nl_load_domain+0x634>
   120f0:	b039      	add	sp, #228	; 0xe4
   120f2:	e8bd 8ff0 	ldmia.w	sp!, {r4, r5, r6, r7, r8, r9, sl, fp, pc}
   120f6:	60a3      	str	r3, [r4, #8]
   120f8:	f3bf 8f5b 	dmb	ish
   120fc:	e854 2f00 	ldrex	r2, [r4]
   12100:	e844 3100 	strex	r1, r3, [r4]
   12104:	2900      	cmp	r1, #0
   12106:	d1f9      	bne.n	120fc <_nl_load_domain+0x94>
   12108:	2a01      	cmp	r2, #1
   1210a:	ddeb      	ble.n	120e4 <_nl_load_domain+0x7c>
   1210c:	f249 402c 	movw	r0, #37932	; 0x942c
   12110:	2181      	movs	r1, #129	; 0x81
   12112:	f2c0 0007 	movt	r0, #7
   12116:	2201      	movs	r2, #1
   12118:	f04f 0cf0 	mov.w	ip, #240	; 0xf0
   1211c:	f7fe fee0 	bl	10ee0 <__libc_do_syscall>
   12120:	e7e0      	b.n	120e4 <_nl_load_domain+0x7c>
   12122:	f8dd a00c 	ldr.w	sl, [sp, #12]
   12126:	aa1a      	add	r2, sp, #104	; 0x68
   12128:	2003      	movs	r0, #3
   1212a:	4651      	mov	r1, sl
   1212c:	f00f fba6 	bl	2187c <___fxstat64>
   12130:	9006      	str	r0, [sp, #24]
   12132:	2800      	cmp	r0, #0
   12134:	f040 814a 	bne.w	123cc <_nl_load_domain+0x364>
   12138:	e9dd 2326 	ldrd	r2, r3, [sp, #152]	; 0x98
   1213c:	461f      	mov	r7, r3
   1213e:	42b8      	cmp	r0, r7
   12140:	4616      	mov	r6, r2
   12142:	bf08      	it	eq
   12144:	42b2      	cmpeq	r2, r6
   12146:	4603      	mov	r3, r0
   12148:	e9cd 6704 	strd	r6, r7, [sp, #16]
   1214c:	bf14      	ite	ne
   1214e:	2301      	movne	r3, #1
   12150:	2300      	moveq	r3, #0
   12152:	2a2f      	cmp	r2, #47	; 0x2f
   12154:	bf98      	it	ls
   12156:	f043 0301 	orrls.w	r3, r3, #1
   1215a:	2b00      	cmp	r3, #0
   1215c:	f040 8136 	bne.w	123cc <_nl_load_domain+0x364>
   12160:	f8cd a000 	str.w	sl, [sp]
   12164:	2302      	movs	r3, #2
   12166:	9001      	str	r0, [sp, #4]
   12168:	2201      	movs	r2, #1
   1216a:	4631      	mov	r1, r6
   1216c:	f8cd a00c 	str.w	sl, [sp, #12]
   12170:	f010 f976 	bl	22460 <__mmap>
   12174:	f1b0 3fff 	cmp.w	r0, #4294967295	; 0xffffffff
   12178:	4682      	mov	sl, r0
   1217a:	f000 8188 	beq.w	1248e <_nl_load_domain+0x426>
   1217e:	9803      	ldr	r0, [sp, #12]
   12180:	f00f fe0c 	bl	21d9c <__close_nocancel>
   12184:	f8da 7000 	ldr.w	r7, [sl]
   12188:	f241 23de 	movw	r3, #4830	; 0x12de
   1218c:	f2c9 5304 	movt	r3, #38148	; 0x9504
   12190:	1afd      	subs	r5, r7, r3
   12192:	f240 4295 	movw	r2, #1173	; 0x495
   12196:	f6cd 6212 	movt	r2, #56850	; 0xde12
   1219a:	bf18      	it	ne
   1219c:	2501      	movne	r5, #1
   1219e:	4297      	cmp	r7, r2
   121a0:	bf18      	it	ne
   121a2:	429f      	cmpne	r7, r3
   121a4:	f040 81b7 	bne.w	12516 <_nl_load_domain+0x4ae>
   121a8:	2301      	movs	r3, #1
   121aa:	9306      	str	r3, [sp, #24]
   121ac:	2068      	movs	r0, #104	; 0x68
   121ae:	f00b faf5 	bl	1d79c <__libc_malloc>
   121b2:	4606      	mov	r6, r0
   121b4:	2800      	cmp	r0, #0
   121b6:	d08e      	beq.n	120d6 <_nl_load_domain+0x6e>
   121b8:	9b06      	ldr	r3, [sp, #24]
   121ba:	f241 22de 	movw	r2, #4830	; 0x12de
   121be:	f2c9 5204 	movt	r2, #38148	; 0x9504
   121c2:	f8c8 0008 	str.w	r0, [r8, #8]
   121c6:	4297      	cmp	r7, r2
   121c8:	f04f 0000 	mov.w	r0, #0
   121cc:	6073      	str	r3, [r6, #4]
   121ce:	9b04      	ldr	r3, [sp, #16]
   121d0:	f8c6 a000 	str.w	sl, [r6]
   121d4:	6130      	str	r0, [r6, #16]
   121d6:	e9c6 3502 	strd	r3, r5, [r6, #8]
   121da:	f8da 3004 	ldr.w	r3, [sl, #4]
   121de:	f040 80fe 	bne.w	123de <_nl_load_domain+0x376>
   121e2:	f5b3 3f00 	cmp.w	r3, #131072	; 0x20000
   121e6:	f080 811c 	bcs.w	12422 <_nl_load_domain+0x3ba>
   121ea:	f8da 2008 	ldr.w	r2, [sl, #8]
   121ee:	f8da 0014 	ldr.w	r0, [sl, #20]
   121f2:	f8da 100c 	ldr.w	r1, [sl, #12]
   121f6:	2802      	cmp	r0, #2
   121f8:	6172      	str	r2, [r6, #20]
   121fa:	f8da 2010 	ldr.w	r2, [sl, #16]
   121fe:	4451      	add	r1, sl
   12200:	9007      	str	r0, [sp, #28]
   12202:	4452      	add	r2, sl
   12204:	62f0      	str	r0, [r6, #44]	; 0x2c
   12206:	61b1      	str	r1, [r6, #24]
   12208:	61f2      	str	r2, [r6, #28]
   1220a:	f240 8104 	bls.w	12416 <_nl_load_domain+0x3ae>
   1220e:	f8da 2018 	ldr.w	r2, [sl, #24]
   12212:	b29b      	uxth	r3, r3
   12214:	4452      	add	r2, sl
   12216:	e9c6 250c 	strd	r2, r5, [r6, #48]	; 0x30
   1221a:	2b00      	cmp	r3, #0
   1221c:	f000 8112 	beq.w	12444 <_nl_load_domain+0x3dc>
   12220:	2a00      	cmp	r2, #0
   12222:	f000 80fd 	beq.w	12420 <_nl_load_domain+0x3b8>
   12226:	f241 23de 	movw	r3, #4830	; 0x12de
   1222a:	f2c9 5304 	movt	r3, #38148	; 0x9504
   1222e:	429f      	cmp	r7, r3
   12230:	f8da 3024 	ldr.w	r3, [sl, #36]	; 0x24
   12234:	f000 8166 	beq.w	12504 <_nl_load_domain+0x49c>
   12238:	ba1b      	rev	r3, r3
   1223a:	930a      	str	r3, [sp, #40]	; 0x28
   1223c:	2b00      	cmp	r3, #0
   1223e:	f000 8101 	beq.w	12444 <_nl_load_domain+0x3dc>
   12242:	e9da 3507 	ldrd	r3, r5, [sl, #28]
   12246:	ba2d      	rev	r5, r5
   12248:	ba1b      	rev	r3, r3
   1224a:	9308      	str	r3, [sp, #32]
   1224c:	2104      	movs	r1, #4
   1224e:	9808      	ldr	r0, [sp, #32]
   12250:	f00b fee8 	bl	1e024 <__calloc>
   12254:	9009      	str	r0, [sp, #36]	; 0x24
   12256:	2800      	cmp	r0, #0
   12258:	f000 80e2 	beq.w	12420 <_nl_load_domain+0x3b8>
   1225c:	9b08      	ldr	r3, [sp, #32]
   1225e:	2b00      	cmp	r3, #0
   12260:	f000 817a 	beq.w	12558 <_nl_load_domain+0x4f0>
   12264:	f641 5c74 	movw	ip, #7540	; 0x1d74
   12268:	eb0a 0205 	add.w	r2, sl, r5
   1226c:	f241 21de 	movw	r1, #4830	; 0x12de
   12270:	f641 50b4 	movw	r0, #7604	; 0x1db4
   12274:	f2c9 5104 	movt	r1, #38148	; 0x9504
   12278:	f2c0 0005 	movt	r0, #5
   1227c:	9112      	str	r1, [sp, #72]	; 0x48
   1227e:	f244 359c 	movw	r5, #17308	; 0x439c
   12282:	9909      	ldr	r1, [sp, #36]	; 0x24
   12284:	f2c0 0506 	movt	r5, #6
   12288:	950b      	str	r5, [sp, #44]	; 0x2c
   1228a:	4665      	mov	r5, ip
   1228c:	f641 5ca8 	movw	ip, #7592	; 0x1da8
   12290:	f2c0 0506 	movt	r5, #6
   12294:	950c      	str	r5, [sp, #48]	; 0x30
   12296:	f243 45c0 	movw	r5, #13504	; 0x34c0
   1229a:	f2c0 0505 	movt	r5, #5
   1229e:	950d      	str	r5, [sp, #52]	; 0x34
   122a0:	4665      	mov	r5, ip
   122a2:	f241 1cf0 	movw	ip, #4592	; 0x11f0
   122a6:	f2c0 0505 	movt	r5, #5
   122aa:	e9cd b415 	strd	fp, r4, [sp, #84]	; 0x54
   122ae:	950e      	str	r5, [sp, #56]	; 0x38
   122b0:	3904      	subs	r1, #4
   122b2:	f243 6598 	movw	r5, #13976	; 0x3698
   122b6:	9613      	str	r6, [sp, #76]	; 0x4c
   122b8:	f2c0 0505 	movt	r5, #5
   122bc:	4696      	mov	lr, r2
   122be:	950f      	str	r5, [sp, #60]	; 0x3c
   122c0:	461e      	mov	r6, r3
   122c2:	4665      	mov	r5, ip
   122c4:	9103      	str	r1, [sp, #12]
   122c6:	f2c0 0506 	movt	r5, #6
   122ca:	f04f 0c00 	mov.w	ip, #0
   122ce:	9510      	str	r5, [sp, #64]	; 0x40
   122d0:	4683      	mov	fp, r0
   122d2:	f641 55c0 	movw	r5, #7616	; 0x1dc0
   122d6:	f8cd 8050 	str.w	r8, [sp, #80]	; 0x50
   122da:	f2c0 0505 	movt	r5, #5
   122de:	f8cd 905c 	str.w	r9, [sp, #92]	; 0x5c
   122e2:	9511      	str	r5, [sp, #68]	; 0x44
   122e4:	4615      	mov	r5, r2
   122e6:	9c12      	ldr	r4, [sp, #72]	; 0x48
   122e8:	e012      	b.n	12310 <_nl_load_domain+0x2a8>
   122ea:	2849      	cmp	r0, #73	; 0x49
   122ec:	d104      	bne.n	122f8 <_nl_load_domain+0x290>
   122ee:	7853      	ldrb	r3, [r2, #1]
   122f0:	2b00      	cmp	r3, #0
   122f2:	bf0c      	ite	eq
   122f4:	465b      	moveq	r3, fp
   122f6:	2300      	movne	r3, #0
   122f8:	9a03      	ldr	r2, [sp, #12]
   122fa:	f10c 0c01 	add.w	ip, ip, #1
   122fe:	45b4      	cmp	ip, r6
   12300:	f10e 0e08 	add.w	lr, lr, #8
   12304:	f842 3f04 	str.w	r3, [r2, #4]!
   12308:	4613      	mov	r3, r2
   1230a:	9203      	str	r2, [sp, #12]
   1230c:	f000 811e 	beq.w	1254c <_nl_load_domain+0x4e4>
   12310:	42a7      	cmp	r7, r4
   12312:	bf1b      	ittet	ne
   12314:	f855 003c 	ldrne.w	r0, [r5, ip, lsl #3]
   12318:	f8de 3004 	ldrne.w	r3, [lr, #4]
   1231c:	f855 003c 	ldreq.w	r0, [r5, ip, lsl #3]
   12320:	ba00      	revne	r0, r0
   12322:	bf0d      	iteet	eq
   12324:	f8de 2004 	ldreq.w	r2, [lr, #4]
   12328:	ba1b      	revne	r3, r3
   1232a:	eb0a 0203 	addne.w	r2, sl, r3
   1232e:	4452      	addeq	r2, sl
   12330:	2800      	cmp	r0, #0
   12332:	f000 80f6 	beq.w	12522 <_nl_load_domain+0x4ba>
   12336:	4410      	add	r0, r2
   12338:	f810 3c01 	ldrb.w	r3, [r0, #-1]
   1233c:	2b00      	cmp	r3, #0
   1233e:	f040 80f0 	bne.w	12522 <_nl_load_domain+0x4ba>
   12342:	7810      	ldrb	r0, [r2, #0]
   12344:	2850      	cmp	r0, #80	; 0x50
   12346:	d1d0      	bne.n	122ea <_nl_load_domain+0x282>
   12348:	7850      	ldrb	r0, [r2, #1]
   1234a:	2852      	cmp	r0, #82	; 0x52
   1234c:	d1d4      	bne.n	122f8 <_nl_load_domain+0x290>
   1234e:	7890      	ldrb	r0, [r2, #2]
   12350:	2849      	cmp	r0, #73	; 0x49
   12352:	d1d1      	bne.n	122f8 <_nl_load_domain+0x290>
   12354:	78d0      	ldrb	r0, [r2, #3]
   12356:	2869      	cmp	r0, #105	; 0x69
   12358:	bf18      	it	ne
   1235a:	2864      	cmpne	r0, #100	; 0x64
   1235c:	f000 01df 	and.w	r1, r0, #223	; 0xdf
   12360:	bf0c      	ite	eq
   12362:	f04f 0801 	moveq.w	r8, #1
   12366:	f04f 0800 	movne.w	r8, #0
   1236a:	2875      	cmp	r0, #117	; 0x75
   1236c:	bf18      	it	ne
   1236e:	286f      	cmpne	r0, #111	; 0x6f
   12370:	bf0c      	ite	eq
   12372:	f04f 0901 	moveq.w	r9, #1
   12376:	f04f 0900 	movne.w	r9, #0
   1237a:	ea48 0909 	orr.w	r9, r8, r9
   1237e:	2958      	cmp	r1, #88	; 0x58
   12380:	bf08      	it	eq
   12382:	f049 0901 	orreq.w	r9, r9, #1
   12386:	f1b9 0f00 	cmp.w	r9, #0
   1238a:	f000 82fc 	beq.w	12986 <_nl_load_domain+0x91e>
   1238e:	f892 9004 	ldrb.w	r9, [r2, #4]
   12392:	f1b9 0f38 	cmp.w	r9, #56	; 0x38
   12396:	f000 8185 	beq.w	126a4 <_nl_load_domain+0x63c>
   1239a:	f1b9 0f31 	cmp.w	r9, #49	; 0x31
   1239e:	f000 819a 	beq.w	126d6 <_nl_load_domain+0x66e>
   123a2:	f1b9 0f33 	cmp.w	r9, #51	; 0x33
   123a6:	f040 82f0 	bne.w	1298a <_nl_load_domain+0x922>
   123aa:	7953      	ldrb	r3, [r2, #5]
   123ac:	2b32      	cmp	r3, #50	; 0x32
   123ae:	f000 82c9 	beq.w	12944 <_nl_load_domain+0x8dc>
   123b2:	2300      	movs	r3, #0
   123b4:	e7a0      	b.n	122f8 <_nl_load_domain+0x290>
   123b6:	3001      	adds	r0, #1
   123b8:	d106      	bne.n	123c8 <_nl_load_domain+0x360>
   123ba:	4ab9      	ldr	r2, [pc, #740]	; (126a0 <_nl_load_domain+0x638>)
   123bc:	447a      	add	r2, pc
   123be:	6812      	ldr	r2, [r2, #0]
   123c0:	f859 2002 	ldr.w	r2, [r9, r2]
   123c4:	2a04      	cmp	r2, #4
   123c6:	d071      	beq.n	124ac <_nl_load_domain+0x444>
   123c8:	9403      	str	r4, [sp, #12]
   123ca:	4634      	mov	r4, r6
   123cc:	9803      	ldr	r0, [sp, #12]
   123ce:	f00f fce5 	bl	21d9c <__close_nocancel>
   123d2:	6863      	ldr	r3, [r4, #4]
   123d4:	e680      	b.n	120d8 <_nl_load_domain+0x70>
   123d6:	4620      	mov	r0, r4
   123d8:	f010 fef0 	bl	231bc <__lll_lock_wait_private>
   123dc:	e668      	b.n	120b0 <_nl_load_domain+0x48>
   123de:	ba1b      	rev	r3, r3
   123e0:	f5b3 3f00 	cmp.w	r3, #131072	; 0x20000
   123e4:	d21d      	bcs.n	12422 <_nl_load_domain+0x3ba>
   123e6:	f8da 2008 	ldr.w	r2, [sl, #8]
   123ea:	e9da 0103 	ldrd	r0, r1, [sl, #12]
   123ee:	fa92 fc82 	rev.w	ip, r2
   123f2:	f8da 2014 	ldr.w	r2, [sl, #20]
   123f6:	ba00      	rev	r0, r0
   123f8:	ba09      	rev	r1, r1
   123fa:	ba12      	rev	r2, r2
   123fc:	4450      	add	r0, sl
   123fe:	2a02      	cmp	r2, #2
   12400:	4451      	add	r1, sl
   12402:	9207      	str	r2, [sp, #28]
   12404:	e9c6 c005 	strd	ip, r0, [r6, #20]
   12408:	62f2      	str	r2, [r6, #44]	; 0x2c
   1240a:	61f1      	str	r1, [r6, #28]
   1240c:	d903      	bls.n	12416 <_nl_load_domain+0x3ae>
   1240e:	f8da 2018 	ldr.w	r2, [sl, #24]
   12412:	ba12      	rev	r2, r2
   12414:	e6fd      	b.n	12212 <_nl_load_domain+0x1aa>
   12416:	b29b      	uxth	r3, r3
   12418:	2200      	movs	r2, #0
   1241a:	6375      	str	r5, [r6, #52]	; 0x34
   1241c:	6332      	str	r2, [r6, #48]	; 0x30
   1241e:	b18b      	cbz	r3, 12444 <_nl_load_domain+0x3dc>
   12420:	6930      	ldr	r0, [r6, #16]
   12422:	f00b fc11 	bl	1dc48 <__free>
   12426:	9b06      	ldr	r3, [sp, #24]
   12428:	2b00      	cmp	r3, #0
   1242a:	d067      	beq.n	124fc <_nl_load_domain+0x494>
   1242c:	9904      	ldr	r1, [sp, #16]
   1242e:	4650      	mov	r0, sl
   12430:	f010 f86e 	bl	22510 <__munmap>
   12434:	4630      	mov	r0, r6
   12436:	f00b fc07 	bl	1dc48 <__free>
   1243a:	2200      	movs	r2, #0
   1243c:	6863      	ldr	r3, [r4, #4]
   1243e:	f8c8 2008 	str.w	r2, [r8, #8]
   12442:	e649      	b.n	120d8 <_nl_load_domain+0x70>
   12444:	2300      	movs	r3, #0
   12446:	e9c6 3308 	strd	r3, r3, [r6, #32]
   1244a:	62b3      	str	r3, [r6, #40]	; 0x28
   1244c:	f240 0300 	movw	r3, #0
   12450:	f2c0 0300 	movt	r3, #0
   12454:	2100      	movs	r1, #0
   12456:	e9c6 110e 	strd	r1, r1, [r6, #56]	; 0x38
   1245a:	b11b      	cbz	r3, 12464 <_nl_load_domain+0x3fc>
   1245c:	f106 0040 	add.w	r0, r6, #64	; 0x40
   12460:	f3af 8000 	nop.w
   12464:	ab19      	add	r3, sp, #100	; 0x64
   12466:	4649      	mov	r1, r9
   12468:	9300      	str	r3, [sp, #0]
   1246a:	f645 6298 	movw	r2, #24216	; 0x5e98
   1246e:	2300      	movs	r3, #0
   12470:	f2c0 0206 	movt	r2, #6
   12474:	4640      	mov	r0, r8
   12476:	f7fe fe9f 	bl	111b8 <_nl_find_msg>
   1247a:	1c43      	adds	r3, r0, #1
   1247c:	d05a      	beq.n	12534 <_nl_load_domain+0x4cc>
   1247e:	f106 0264 	add.w	r2, r6, #100	; 0x64
   12482:	f106 0160 	add.w	r1, r6, #96	; 0x60
   12486:	f001 fd61 	bl	13f4c <__gettext_extract_plural>
   1248a:	6863      	ldr	r3, [r4, #4]
   1248c:	e624      	b.n	120d8 <_nl_load_domain+0x70>
   1248e:	e9dd 6704 	ldrd	r6, r7, [sp, #16]
   12492:	4630      	mov	r0, r6
   12494:	f00b f982 	bl	1d79c <__libc_malloc>
   12498:	4682      	mov	sl, r0
   1249a:	2800      	cmp	r0, #0
   1249c:	d096      	beq.n	123cc <_nl_load_domain+0x364>
   1249e:	4637      	mov	r7, r6
   124a0:	4626      	mov	r6, r4
   124a2:	9c03      	ldr	r4, [sp, #12]
   124a4:	f8cd 901c 	str.w	r9, [sp, #28]
   124a8:	46a9      	mov	r9, r5
   124aa:	4605      	mov	r5, r0
   124ac:	463a      	mov	r2, r7
   124ae:	4629      	mov	r1, r5
   124b0:	4620      	mov	r0, r4
   124b2:	f00f fae1 	bl	21a78 <__read_nocancel>
   124b6:	2800      	cmp	r0, #0
   124b8:	f77f af7d 	ble.w	123b6 <_nl_load_domain+0x34e>
   124bc:	1a3f      	subs	r7, r7, r0
   124be:	4405      	add	r5, r0
   124c0:	d1f4      	bne.n	124ac <_nl_load_domain+0x444>
   124c2:	4620      	mov	r0, r4
   124c4:	f8dd 901c 	ldr.w	r9, [sp, #28]
   124c8:	f00f fc68 	bl	21d9c <__close_nocancel>
   124cc:	f8da 7000 	ldr.w	r7, [sl]
   124d0:	f241 23de 	movw	r3, #4830	; 0x12de
   124d4:	f2c9 5304 	movt	r3, #38148	; 0x9504
   124d8:	1afd      	subs	r5, r7, r3
   124da:	f240 4295 	movw	r2, #1173	; 0x495
   124de:	f6cd 6212 	movt	r2, #56850	; 0xde12
   124e2:	4634      	mov	r4, r6
   124e4:	bf18      	it	ne
   124e6:	2501      	movne	r5, #1
   124e8:	4297      	cmp	r7, r2
   124ea:	bf18      	it	ne
   124ec:	429f      	cmpne	r7, r3
   124ee:	f43f ae5d 	beq.w	121ac <_nl_load_domain+0x144>
   124f2:	4650      	mov	r0, sl
   124f4:	f00b fba8 	bl	1dc48 <__free>
   124f8:	6873      	ldr	r3, [r6, #4]
   124fa:	e5ed      	b.n	120d8 <_nl_load_domain+0x70>
   124fc:	4650      	mov	r0, sl
   124fe:	f00b fba3 	bl	1dc48 <__free>
   12502:	e797      	b.n	12434 <_nl_load_domain+0x3cc>
   12504:	930a      	str	r3, [sp, #40]	; 0x28
   12506:	2b00      	cmp	r3, #0
   12508:	d09c      	beq.n	12444 <_nl_load_domain+0x3dc>
   1250a:	f8da 301c 	ldr.w	r3, [sl, #28]
   1250e:	f8da 5020 	ldr.w	r5, [sl, #32]
   12512:	9308      	str	r3, [sp, #32]
   12514:	e69a      	b.n	1224c <_nl_load_domain+0x1e4>
   12516:	9904      	ldr	r1, [sp, #16]
   12518:	4650      	mov	r0, sl
   1251a:	f00f fff9 	bl	22510 <__munmap>
   1251e:	6863      	ldr	r3, [r4, #4]
   12520:	e5da      	b.n	120d8 <_nl_load_domain+0x70>
   12522:	e9dd 6813 	ldrd	r6, r8, [sp, #76]	; 0x4c
   12526:	9809      	ldr	r0, [sp, #36]	; 0x24
   12528:	e9dd b415 	ldrd	fp, r4, [sp, #84]	; 0x54
   1252c:	f00b fb8c 	bl	1dc48 <__free>
   12530:	6930      	ldr	r0, [r6, #16]
   12532:	e776      	b.n	12422 <_nl_load_domain+0x3ba>
   12534:	f240 0300 	movw	r3, #0
   12538:	f2c0 0300 	movt	r3, #0
   1253c:	2b00      	cmp	r3, #0
   1253e:	f43f af6f 	beq.w	12420 <_nl_load_domain+0x3b8>
   12542:	f106 0040 	add.w	r0, r6, #64	; 0x40
   12546:	f3af 8000 	nop.w
   1254a:	e769      	b.n	12420 <_nl_load_domain+0x3b8>
   1254c:	e9dd 6813 	ldrd	r6, r8, [sp, #76]	; 0x4c
   12550:	f8dd 905c 	ldr.w	r9, [sp, #92]	; 0x5c
   12554:	e9dd b415 	ldrd	fp, r4, [sp, #84]	; 0x54
   12558:	f8da 2028 	ldr.w	r2, [sl, #40]	; 0x28
   1255c:	f241 23de 	movw	r3, #4830	; 0x12de
   12560:	f2c9 5304 	movt	r3, #38148	; 0x9504
   12564:	f8cd 904c 	str.w	r9, [sp, #76]	; 0x4c
   12568:	429f      	cmp	r7, r3
   1256a:	f8dd 9020 	ldr.w	r9, [sp, #32]
   1256e:	bf15      	itete	ne
   12570:	ba12      	revne	r2, r2
   12572:	4452      	addeq	r2, sl
   12574:	4452      	addne	r2, sl
   12576:	920d      	streq	r2, [sp, #52]	; 0x34
   12578:	bf18      	it	ne
   1257a:	920d      	strne	r2, [sp, #52]	; 0x34
   1257c:	f04f 0100 	mov.w	r1, #0
   12580:	9a07      	ldr	r2, [sp, #28]
   12582:	f8da 302c 	ldr.w	r3, [sl, #44]	; 0x2c
   12586:	f8cd b020 	str.w	fp, [sp, #32]
   1258a:	ea4f 0282 	mov.w	r2, r2, lsl #2
   1258e:	f8dd b024 	ldr.w	fp, [sp, #36]	; 0x24
   12592:	9211      	str	r2, [sp, #68]	; 0x44
   12594:	bf18      	it	ne
   12596:	ba1b      	revne	r3, r3
   12598:	920c      	str	r2, [sp, #48]	; 0x30
   1259a:	f241 22de 	movw	r2, #4830	; 0x12de
   1259e:	f2c9 5204 	movt	r2, #38148	; 0x9504
   125a2:	e9cd 680e 	strd	r6, r8, [sp, #56]	; 0x38
   125a6:	4688      	mov	r8, r1
   125a8:	4453      	add	r3, sl
   125aa:	4616      	mov	r6, r2
   125ac:	9307      	str	r3, [sp, #28]
   125ae:	9103      	str	r1, [sp, #12]
   125b0:	f8cd a02c 	str.w	sl, [sp, #44]	; 0x2c
   125b4:	9410      	str	r4, [sp, #64]	; 0x40
   125b6:	2500      	movs	r5, #0
   125b8:	42b7      	cmp	r7, r6
   125ba:	d039      	beq.n	12630 <_nl_load_domain+0x5c8>
   125bc:	2d00      	cmp	r5, #0
   125be:	f000 81ee 	beq.w	1299e <_nl_load_domain+0x936>
   125c2:	9b07      	ldr	r3, [sp, #28]
   125c4:	f853 3028 	ldr.w	r3, [r3, r8, lsl #2]
   125c8:	fa93 fa83 	rev.w	sl, r3
   125cc:	9b0b      	ldr	r3, [sp, #44]	; 0x2c
   125ce:	449a      	add	sl, r3
   125d0:	f8da 4008 	ldr.w	r4, [sl, #8]
   125d4:	3401      	adds	r4, #1
   125d6:	bf18      	it	ne
   125d8:	2401      	movne	r4, #1
   125da:	2c00      	cmp	r4, #0
   125dc:	d139      	bne.n	12652 <_nl_load_domain+0x5ea>
   125de:	ab35      	add	r3, sp, #212	; 0xd4
   125e0:	f843 4025 	str.w	r4, [r3, r5, lsl #2]
   125e4:	2d00      	cmp	r5, #0
   125e6:	d032      	beq.n	1264e <_nl_load_domain+0x5e6>
   125e8:	9a03      	ldr	r2, [sp, #12]
   125ea:	9b35      	ldr	r3, [sp, #212]	; 0xd4
   125ec:	3201      	adds	r2, #1
   125ee:	9203      	str	r2, [sp, #12]
   125f0:	9a36      	ldr	r2, [sp, #216]	; 0xd8
   125f2:	4413      	add	r3, r2
   125f4:	9a0c      	ldr	r2, [sp, #48]	; 0x30
   125f6:	441a      	add	r2, r3
   125f8:	920c      	str	r2, [sp, #48]	; 0x30
   125fa:	9b0a      	ldr	r3, [sp, #40]	; 0x28
   125fc:	f108 0801 	add.w	r8, r8, #1
   12600:	4598      	cmp	r8, r3
   12602:	d1d8      	bne.n	125b6 <_nl_load_domain+0x54e>
   12604:	9b03      	ldr	r3, [sp, #12]
   12606:	f8cd 8048 	str.w	r8, [sp, #72]	; 0x48
   1260a:	f8dd a02c 	ldr.w	sl, [sp, #44]	; 0x2c
   1260e:	e9dd 680e 	ldrd	r6, r8, [sp, #56]	; 0x38
   12612:	f8dd 904c 	ldr.w	r9, [sp, #76]	; 0x4c
   12616:	f8dd b020 	ldr.w	fp, [sp, #32]
   1261a:	9c10      	ldr	r4, [sp, #64]	; 0x40
   1261c:	2b00      	cmp	r3, #0
   1261e:	d179      	bne.n	12714 <_nl_load_domain+0x6ac>
   12620:	9b03      	ldr	r3, [sp, #12]
   12622:	e9c6 3308 	strd	r3, r3, [r6, #32]
   12626:	62b3      	str	r3, [r6, #40]	; 0x28
   12628:	9809      	ldr	r0, [sp, #36]	; 0x24
   1262a:	f00b fb0d 	bl	1dc48 <__free>
   1262e:	e70d      	b.n	1244c <_nl_load_domain+0x3e4>
   12630:	2d00      	cmp	r5, #0
   12632:	f000 81b8 	beq.w	129a6 <_nl_load_domain+0x93e>
   12636:	9b07      	ldr	r3, [sp, #28]
   12638:	f853 3028 	ldr.w	r3, [r3, r8, lsl #2]
   1263c:	9a0b      	ldr	r2, [sp, #44]	; 0x2c
   1263e:	eb02 0a03 	add.w	sl, r2, r3
   12642:	f8da 4008 	ldr.w	r4, [sl, #8]
   12646:	3401      	adds	r4, #1
   12648:	bf18      	it	ne
   1264a:	2401      	movne	r4, #1
   1264c:	e7c5      	b.n	125da <_nl_load_domain+0x572>
   1264e:	2501      	movs	r5, #1
   12650:	e7b2      	b.n	125b8 <_nl_load_domain+0x550>
   12652:	f10a 0a0c 	add.w	sl, sl, #12
   12656:	2400      	movs	r4, #0
   12658:	e008      	b.n	1266c <_nl_load_domain+0x604>
   1265a:	f85b 0023 	ldr.w	r0, [fp, r3, lsl #2]
   1265e:	f10a 0a08 	add.w	sl, sl, #8
   12662:	2800      	cmp	r0, #0
   12664:	d0c9      	beq.n	125fa <_nl_load_domain+0x592>
   12666:	f00c fcab 	bl	1efc0 <strlen>
   1266a:	4404      	add	r4, r0
   1266c:	e95a 2302 	ldrd	r2, r3, [sl, #-8]
   12670:	42b7      	cmp	r7, r6
   12672:	bf1d      	ittte	ne
   12674:	ba12      	revne	r2, r2
   12676:	ba1b      	revne	r3, r3
   12678:	18a4      	addne	r4, r4, r2
   1267a:	18a4      	addeq	r4, r4, r2
   1267c:	1c5a      	adds	r2, r3, #1
   1267e:	d0ae      	beq.n	125de <_nl_load_domain+0x576>
   12680:	454b      	cmp	r3, r9
   12682:	d3ea      	bcc.n	1265a <_nl_load_domain+0x5f2>
   12684:	e9dd 680e 	ldrd	r6, r8, [sp, #56]	; 0x38
   12688:	9809      	ldr	r0, [sp, #36]	; 0x24
   1268a:	f8dd a02c 	ldr.w	sl, [sp, #44]	; 0x2c
   1268e:	f8dd b020 	ldr.w	fp, [sp, #32]
   12692:	9c10      	ldr	r4, [sp, #64]	; 0x40
   12694:	f00b fad8 	bl	1dc48 <__free>
   12698:	6930      	ldr	r0, [r6, #16]
   1269a:	e6c2      	b.n	12422 <_nl_load_domain+0x3ba>
   1269c:	f010 fe28 	bl	232f0 <__stack_chk_fail>
   126a0:	00065ca0 	.word	0x00065ca0
   126a4:	7952      	ldrb	r2, [r2, #5]
   126a6:	2a00      	cmp	r2, #0
   126a8:	f47f ae26 	bne.w	122f8 <_nl_load_domain+0x290>
   126ac:	2864      	cmp	r0, #100	; 0x64
   126ae:	f000 8174 	beq.w	1299a <_nl_load_domain+0x932>
   126b2:	f1b8 0f00 	cmp.w	r8, #0
   126b6:	f040 81ef 	bne.w	12a98 <_nl_load_domain+0xa30>
   126ba:	286f      	cmp	r0, #111	; 0x6f
   126bc:	f000 8347 	beq.w	12d4e <_nl_load_domain+0xce6>
   126c0:	2875      	cmp	r0, #117	; 0x75
   126c2:	f000 8341 	beq.w	12d48 <_nl_load_domain+0xce0>
   126c6:	2878      	cmp	r0, #120	; 0x78
   126c8:	f000 833b 	beq.w	12d42 <_nl_load_domain+0xcda>
   126cc:	2858      	cmp	r0, #88	; 0x58
   126ce:	f040 8336 	bne.w	12d3e <_nl_load_domain+0xcd6>
   126d2:	9b10      	ldr	r3, [sp, #64]	; 0x40
   126d4:	e610      	b.n	122f8 <_nl_load_domain+0x290>
   126d6:	f892 9005 	ldrb.w	r9, [r2, #5]
   126da:	f1b9 0f36 	cmp.w	r9, #54	; 0x36
   126de:	f47f ae0b 	bne.w	122f8 <_nl_load_domain+0x290>
   126e2:	7993      	ldrb	r3, [r2, #6]
   126e4:	2b00      	cmp	r3, #0
   126e6:	f040 8162 	bne.w	129ae <_nl_load_domain+0x946>
   126ea:	2864      	cmp	r0, #100	; 0x64
   126ec:	f000 81d6 	beq.w	12a9c <_nl_load_domain+0xa34>
   126f0:	f1b8 0f00 	cmp.w	r8, #0
   126f4:	f040 81d6 	bne.w	12aa4 <_nl_load_domain+0xa3c>
   126f8:	286f      	cmp	r0, #111	; 0x6f
   126fa:	f000 81d1 	beq.w	12aa0 <_nl_load_domain+0xa38>
   126fe:	2875      	cmp	r0, #117	; 0x75
   12700:	f000 8328 	beq.w	12d54 <_nl_load_domain+0xcec>
   12704:	2878      	cmp	r0, #120	; 0x78
   12706:	f000 81c5 	beq.w	12a94 <_nl_load_domain+0xa2c>
   1270a:	2858      	cmp	r0, #88	; 0x58
   1270c:	f040 8317 	bne.w	12d3e <_nl_load_domain+0xcd6>
   12710:	9b10      	ldr	r3, [sp, #64]	; 0x40
   12712:	e5f1      	b.n	122f8 <_nl_load_domain+0x290>
   12714:	9a0c      	ldr	r2, [sp, #48]	; 0x30
   12716:	eb02 1003 	add.w	r0, r2, r3, lsl #4
   1271a:	f00b f83f 	bl	1d79c <__libc_malloc>
   1271e:	900a      	str	r0, [sp, #40]	; 0x28
   12720:	2800      	cmp	r0, #0
   12722:	f43f ae7d 	beq.w	12420 <_nl_load_domain+0x3b8>
   12726:	9903      	ldr	r1, [sp, #12]
   12728:	2700      	movs	r7, #0
   1272a:	9b0a      	ldr	r3, [sp, #40]	; 0x28
   1272c:	9811      	ldr	r0, [sp, #68]	; 0x44
   1272e:	eb03 1201 	add.w	r2, r3, r1, lsl #4
   12732:	f8cd b054 	str.w	fp, [sp, #84]	; 0x54
   12736:	4410      	add	r0, r2
   12738:	6133      	str	r3, [r6, #16]
   1273a:	920b      	str	r2, [sp, #44]	; 0x2c
   1273c:	eb03 03c1 	add.w	r3, r3, r1, lsl #3
   12740:	4683      	mov	fp, r0
   12742:	9708      	str	r7, [sp, #32]
   12744:	e9cd 630e 	strd	r6, r3, [sp, #56]	; 0x38
   12748:	e9cd 8913 	strd	r8, r9, [sp, #76]	; 0x4c
   1274c:	9416      	str	r4, [sp, #88]	; 0x58
   1274e:	9b0e      	ldr	r3, [sp, #56]	; 0x38
   12750:	2100      	movs	r1, #0
   12752:	9809      	ldr	r0, [sp, #36]	; 0x24
   12754:	9c0d      	ldr	r4, [sp, #52]	; 0x34
   12756:	68de      	ldr	r6, [r3, #12]
   12758:	9d07      	ldr	r5, [sp, #28]
   1275a:	2e00      	cmp	r6, #0
   1275c:	f000 80aa 	beq.w	128b4 <_nl_load_domain+0x84c>
   12760:	2900      	cmp	r1, #0
   12762:	f000 82cd 	beq.w	12d00 <_nl_load_domain+0xc98>
   12766:	f855 3027 	ldr.w	r3, [r5, r7, lsl #2]
   1276a:	ba1b      	rev	r3, r3
   1276c:	4453      	add	r3, sl
   1276e:	689a      	ldr	r2, [r3, #8]
   12770:	3201      	adds	r2, #1
   12772:	bf18      	it	ne
   12774:	2201      	movne	r2, #1
   12776:	2a00      	cmp	r2, #0
   12778:	f040 808e 	bne.w	12898 <_nl_load_domain+0x830>
   1277c:	2900      	cmp	r1, #0
   1277e:	f000 80a7 	beq.w	128d0 <_nl_load_domain+0x868>
   12782:	9b08      	ldr	r3, [sp, #32]
   12784:	00da      	lsls	r2, r3, #3
   12786:	2300      	movs	r3, #0
   12788:	930c      	str	r3, [sp, #48]	; 0x30
   1278a:	9b0a      	ldr	r3, [sp, #40]	; 0x28
   1278c:	4413      	add	r3, r2
   1278e:	9310      	str	r3, [sp, #64]	; 0x40
   12790:	9b0f      	ldr	r3, [sp, #60]	; 0x3c
   12792:	4413      	add	r3, r2
   12794:	9311      	str	r3, [sp, #68]	; 0x44
   12796:	4633      	mov	r3, r6
   12798:	9a0c      	ldr	r2, [sp, #48]	; 0x30
   1279a:	2b00      	cmp	r3, #0
   1279c:	f000 809a 	beq.w	128d4 <_nl_load_domain+0x86c>
   127a0:	2a00      	cmp	r2, #0
   127a2:	f000 82c6 	beq.w	12d32 <_nl_load_domain+0xcca>
   127a6:	9a07      	ldr	r2, [sp, #28]
   127a8:	f8dd 8044 	ldr.w	r8, [sp, #68]	; 0x44
   127ac:	f852 2027 	ldr.w	r2, [r2, r7, lsl #2]
   127b0:	ba12      	rev	r2, r2
   127b2:	eb0a 0502 	add.w	r5, sl, r2
   127b6:	f85a 4002 	ldr.w	r4, [sl, r2]
   127ba:	e9d5 2101 	ldrd	r2, r1, [r5, #4]
   127be:	ba24      	rev	r4, r4
   127c0:	3101      	adds	r1, #1
   127c2:	4454      	add	r4, sl
   127c4:	f040 8098 	bne.w	128f8 <_nl_load_domain+0x890>
   127c8:	ba12      	rev	r2, r2
   127ca:	e9c8 2400 	strd	r2, r4, [r8]
   127ce:	9b0c      	ldr	r3, [sp, #48]	; 0x30
   127d0:	2b00      	cmp	r3, #0
   127d2:	f000 8298 	beq.w	12d06 <_nl_load_domain+0xc9e>
   127d6:	9b08      	ldr	r3, [sp, #32]
   127d8:	3301      	adds	r3, #1
   127da:	9308      	str	r3, [sp, #32]
   127dc:	9b12      	ldr	r3, [sp, #72]	; 0x48
   127de:	3701      	adds	r7, #1
   127e0:	429f      	cmp	r7, r3
   127e2:	d1b4      	bne.n	1274e <_nl_load_domain+0x6e6>
   127e4:	9b03      	ldr	r3, [sp, #12]
   127e6:	9a08      	ldr	r2, [sp, #32]
   127e8:	9e0e      	ldr	r6, [sp, #56]	; 0x38
   127ea:	4293      	cmp	r3, r2
   127ec:	e9dd 8913 	ldrd	r8, r9, [sp, #76]	; 0x4c
   127f0:	e9dd b415 	ldrd	fp, r4, [sp, #84]	; 0x54
   127f4:	f040 82a3 	bne.w	12d3e <_nl_load_domain+0xcd6>
   127f8:	9a0b      	ldr	r2, [sp, #44]	; 0x2c
   127fa:	6af0      	ldr	r0, [r6, #44]	; 0x2c
   127fc:	4613      	mov	r3, r2
   127fe:	eb02 0080 	add.w	r0, r2, r0, lsl #2
   12802:	e008      	b.n	12816 <_nl_load_domain+0x7ae>
   12804:	9a0b      	ldr	r2, [sp, #44]	; 0x2c
   12806:	6b35      	ldr	r5, [r6, #48]	; 0x30
   12808:	6b71      	ldr	r1, [r6, #52]	; 0x34
   1280a:	1a9a      	subs	r2, r3, r2
   1280c:	58aa      	ldr	r2, [r5, r2]
   1280e:	b101      	cbz	r1, 12812 <_nl_load_domain+0x7aa>
   12810:	ba12      	rev	r2, r2
   12812:	f843 2b04 	str.w	r2, [r3], #4
   12816:	4298      	cmp	r0, r3
   12818:	d1f4      	bne.n	12804 <_nl_load_domain+0x79c>
   1281a:	9f0b      	ldr	r7, [sp, #44]	; 0x2c
   1281c:	465a      	mov	r2, fp
   1281e:	2300      	movs	r3, #0
   12820:	46cb      	mov	fp, r9
   12822:	46c1      	mov	r9, r8
   12824:	9403      	str	r4, [sp, #12]
   12826:	920c      	str	r2, [sp, #48]	; 0x30
   12828:	9a0a      	ldr	r2, [sp, #40]	; 0x28
   1282a:	9307      	str	r3, [sp, #28]
   1282c:	eb02 01c3 	add.w	r1, r2, r3, lsl #3
   12830:	6848      	ldr	r0, [r1, #4]
   12832:	f001 fbe9 	bl	14008 <__hash_string>
   12836:	6af4      	ldr	r4, [r6, #44]	; 0x2c
   12838:	4621      	mov	r1, r4
   1283a:	4680      	mov	r8, r0
   1283c:	f03d f9ce 	bl	4fbdc <__aeabi_uidivmod>
   12840:	4640      	mov	r0, r8
   12842:	460d      	mov	r5, r1
   12844:	1ea1      	subs	r1, r4, #2
   12846:	f03d f9c9 	bl	4fbdc <__aeabi_uidivmod>
   1284a:	9b07      	ldr	r3, [sp, #28]
   1284c:	9a0c      	ldr	r2, [sp, #48]	; 0x30
   1284e:	3101      	adds	r1, #1
   12850:	eba4 0e01 	sub.w	lr, r4, r1
   12854:	1b0c      	subs	r4, r1, r4
   12856:	e003      	b.n	12860 <_nl_load_domain+0x7f8>
   12858:	45ae      	cmp	lr, r5
   1285a:	bf94      	ite	ls
   1285c:	192d      	addls	r5, r5, r4
   1285e:	186d      	addhi	r5, r5, r1
   12860:	f857 0025 	ldr.w	r0, [r7, r5, lsl #2]
   12864:	eb07 0c85 	add.w	ip, r7, r5, lsl #2
   12868:	2800      	cmp	r0, #0
   1286a:	d1f5      	bne.n	12858 <_nl_load_domain+0x7f0>
   1286c:	6971      	ldr	r1, [r6, #20]
   1286e:	3101      	adds	r1, #1
   12870:	4419      	add	r1, r3
   12872:	f8cc 1000 	str.w	r1, [ip]
   12876:	9908      	ldr	r1, [sp, #32]
   12878:	3301      	adds	r3, #1
   1287a:	4299      	cmp	r1, r3
   1287c:	d1d3      	bne.n	12826 <_nl_load_domain+0x7be>
   1287e:	46c8      	mov	r8, r9
   12880:	46d9      	mov	r9, fp
   12882:	4693      	mov	fp, r2
   12884:	9a0a      	ldr	r2, [sp, #40]	; 0x28
   12886:	9c03      	ldr	r4, [sp, #12]
   12888:	6231      	str	r1, [r6, #32]
   1288a:	6272      	str	r2, [r6, #36]	; 0x24
   1288c:	9a0f      	ldr	r2, [sp, #60]	; 0x3c
   1288e:	62b2      	str	r2, [r6, #40]	; 0x28
   12890:	9a0b      	ldr	r2, [sp, #44]	; 0x2c
   12892:	e9c6 200c 	strd	r2, r0, [r6, #48]	; 0x30
   12896:	e6c7      	b.n	12628 <_nl_load_domain+0x5c0>
   12898:	3304      	adds	r3, #4
   1289a:	e004      	b.n	128a6 <_nl_load_domain+0x83e>
   1289c:	f850 2022 	ldr.w	r2, [r0, r2, lsl #2]
   128a0:	2a00      	cmp	r2, #0
   128a2:	d09b      	beq.n	127dc <_nl_load_domain+0x774>
   128a4:	3308      	adds	r3, #8
   128a6:	685a      	ldr	r2, [r3, #4]
   128a8:	b106      	cbz	r6, 128ac <_nl_load_domain+0x844>
   128aa:	ba12      	rev	r2, r2
   128ac:	f1b2 3fff 	cmp.w	r2, #4294967295	; 0xffffffff
   128b0:	d1f4      	bne.n	1289c <_nl_load_domain+0x834>
   128b2:	e763      	b.n	1277c <_nl_load_domain+0x714>
   128b4:	2900      	cmp	r1, #0
   128b6:	f000 8217 	beq.w	12ce8 <_nl_load_domain+0xc80>
   128ba:	f855 3027 	ldr.w	r3, [r5, r7, lsl #2]
   128be:	4453      	add	r3, sl
   128c0:	689a      	ldr	r2, [r3, #8]
   128c2:	3201      	adds	r2, #1
   128c4:	bf18      	it	ne
   128c6:	2201      	movne	r2, #1
   128c8:	2a00      	cmp	r2, #0
   128ca:	f43f af57 	beq.w	1277c <_nl_load_domain+0x714>
   128ce:	e7e3      	b.n	12898 <_nl_load_domain+0x830>
   128d0:	2101      	movs	r1, #1
   128d2:	e742      	b.n	1275a <_nl_load_domain+0x6f2>
   128d4:	2a00      	cmp	r2, #0
   128d6:	f000 8221 	beq.w	12d1c <_nl_load_domain+0xcb4>
   128da:	9a07      	ldr	r2, [sp, #28]
   128dc:	f8dd 8044 	ldr.w	r8, [sp, #68]	; 0x44
   128e0:	f852 2027 	ldr.w	r2, [r2, r7, lsl #2]
   128e4:	eb0a 0502 	add.w	r5, sl, r2
   128e8:	f85a 4002 	ldr.w	r4, [sl, r2]
   128ec:	4454      	add	r4, sl
   128ee:	e9d5 2101 	ldrd	r2, r1, [r5, #4]
   128f2:	3101      	adds	r1, #1
   128f4:	f43f af69 	beq.w	127ca <_nl_load_domain+0x762>
   128f8:	350c      	adds	r5, #12
   128fa:	9717      	str	r7, [sp, #92]	; 0x5c
   128fc:	4627      	mov	r7, r4
   128fe:	461c      	mov	r4, r3
   12900:	f8c8 b004 	str.w	fp, [r8, #4]
   12904:	e955 6902 	ldrd	r6, r9, [r5, #-8]
   12908:	b114      	cbz	r4, 12910 <_nl_load_domain+0x8a8>
   1290a:	ba36      	rev	r6, r6
   1290c:	fa99 f989 	rev.w	r9, r9
   12910:	b136      	cbz	r6, 12920 <_nl_load_domain+0x8b8>
   12912:	4639      	mov	r1, r7
   12914:	4658      	mov	r0, fp
   12916:	4632      	mov	r2, r6
   12918:	4437      	add	r7, r6
   1291a:	f7fd ec2e 	blx	10178 <__rel_iplt_end+0x10>
   1291e:	44b3      	add	fp, r6
   12920:	f1b9 3fff 	cmp.w	r9, #4294967295	; 0xffffffff
   12924:	f105 0508 	add.w	r5, r5, #8
   12928:	d023      	beq.n	12972 <_nl_load_domain+0x90a>
   1292a:	9b09      	ldr	r3, [sp, #36]	; 0x24
   1292c:	f853 6029 	ldr.w	r6, [r3, r9, lsl #2]
   12930:	4630      	mov	r0, r6
   12932:	f00c fb45 	bl	1efc0 <strlen>
   12936:	4631      	mov	r1, r6
   12938:	4602      	mov	r2, r0
   1293a:	4658      	mov	r0, fp
   1293c:	4493      	add	fp, r2
   1293e:	f7fd ec1c 	blx	10178 <__rel_iplt_end+0x10>
   12942:	e7df      	b.n	12904 <_nl_load_domain+0x89c>
   12944:	7993      	ldrb	r3, [r2, #6]
   12946:	b9e3      	cbnz	r3, 12982 <_nl_load_domain+0x91a>
   12948:	2864      	cmp	r0, #100	; 0x64
   1294a:	f000 81d0 	beq.w	12cee <_nl_load_domain+0xc86>
   1294e:	f1b8 0f00 	cmp.w	r8, #0
   12952:	f040 81d2 	bne.w	12cfa <_nl_load_domain+0xc92>
   12956:	286f      	cmp	r0, #111	; 0x6f
   12958:	f000 81cc 	beq.w	12cf4 <_nl_load_domain+0xc8c>
   1295c:	2875      	cmp	r0, #117	; 0x75
   1295e:	f000 81da 	beq.w	12d16 <_nl_load_domain+0xcae>
   12962:	2878      	cmp	r0, #120	; 0x78
   12964:	f000 81d4 	beq.w	12d10 <_nl_load_domain+0xca8>
   12968:	2858      	cmp	r0, #88	; 0x58
   1296a:	f040 81e8 	bne.w	12d3e <_nl_load_domain+0xcd6>
   1296e:	9b10      	ldr	r3, [sp, #64]	; 0x40
   12970:	e4c2      	b.n	122f8 <_nl_load_domain+0x290>
   12972:	f8d8 3004 	ldr.w	r3, [r8, #4]
   12976:	9f17      	ldr	r7, [sp, #92]	; 0x5c
   12978:	ebab 0303 	sub.w	r3, fp, r3
   1297c:	f8c8 3000 	str.w	r3, [r8]
   12980:	e725      	b.n	127ce <_nl_load_domain+0x766>
   12982:	2300      	movs	r3, #0
   12984:	e4b8      	b.n	122f8 <_nl_load_domain+0x290>
   12986:	464b      	mov	r3, r9
   12988:	e4b6      	b.n	122f8 <_nl_load_domain+0x290>
   1298a:	f1b9 0f36 	cmp.w	r9, #54	; 0x36
   1298e:	d128      	bne.n	129e2 <_nl_load_domain+0x97a>
   12990:	7953      	ldrb	r3, [r2, #5]
   12992:	2b34      	cmp	r3, #52	; 0x34
   12994:	d00d      	beq.n	129b2 <_nl_load_domain+0x94a>
   12996:	2300      	movs	r3, #0
   12998:	e4ae      	b.n	122f8 <_nl_load_domain+0x290>
   1299a:	9b0b      	ldr	r3, [sp, #44]	; 0x2c
   1299c:	e4ac      	b.n	122f8 <_nl_load_domain+0x290>
   1299e:	9b0d      	ldr	r3, [sp, #52]	; 0x34
   129a0:	f853 3028 	ldr.w	r3, [r3, r8, lsl #2]
   129a4:	e610      	b.n	125c8 <_nl_load_domain+0x560>
   129a6:	9b0d      	ldr	r3, [sp, #52]	; 0x34
   129a8:	f853 3028 	ldr.w	r3, [r3, r8, lsl #2]
   129ac:	e646      	b.n	1263c <_nl_load_domain+0x5d4>
   129ae:	2300      	movs	r3, #0
   129b0:	e4a2      	b.n	122f8 <_nl_load_domain+0x290>
   129b2:	7993      	ldrb	r3, [r2, #6]
   129b4:	b99b      	cbnz	r3, 129de <_nl_load_domain+0x976>
   129b6:	2864      	cmp	r0, #100	; 0x64
   129b8:	f000 8085 	beq.w	12ac6 <_nl_load_domain+0xa5e>
   129bc:	f1b8 0f00 	cmp.w	r8, #0
   129c0:	d17c      	bne.n	12abc <_nl_load_domain+0xa54>
   129c2:	286f      	cmp	r0, #111	; 0x6f
   129c4:	d075      	beq.n	12ab2 <_nl_load_domain+0xa4a>
   129c6:	2875      	cmp	r0, #117	; 0x75
   129c8:	d06e      	beq.n	12aa8 <_nl_load_domain+0xa40>
   129ca:	2878      	cmp	r0, #120	; 0x78
   129cc:	d052      	beq.n	12a74 <_nl_load_domain+0xa0c>
   129ce:	2858      	cmp	r0, #88	; 0x58
   129d0:	f040 81b5 	bne.w	12d3e <_nl_load_domain+0xcd6>
   129d4:	f641 53bc 	movw	r3, #7612	; 0x1dbc
   129d8:	f2c0 0305 	movt	r3, #5
   129dc:	e48c      	b.n	122f8 <_nl_load_domain+0x290>
   129de:	2300      	movs	r3, #0
   129e0:	e48a      	b.n	122f8 <_nl_load_domain+0x290>
   129e2:	f1b9 0f4c 	cmp.w	r9, #76	; 0x4c
   129e6:	d109      	bne.n	129fc <_nl_load_domain+0x994>
   129e8:	7953      	ldrb	r3, [r2, #5]
   129ea:	2b45      	cmp	r3, #69	; 0x45
   129ec:	d001      	beq.n	129f2 <_nl_load_domain+0x98a>
   129ee:	2300      	movs	r3, #0
   129f0:	e482      	b.n	122f8 <_nl_load_domain+0x290>
   129f2:	7993      	ldrb	r3, [r2, #6]
   129f4:	2b41      	cmp	r3, #65	; 0x41
   129f6:	d042      	beq.n	12a7e <_nl_load_domain+0xa16>
   129f8:	2300      	movs	r3, #0
   129fa:	e47d      	b.n	122f8 <_nl_load_domain+0x290>
   129fc:	f1b9 0f46 	cmp.w	r9, #70	; 0x46
   12a00:	d109      	bne.n	12a16 <_nl_load_domain+0x9ae>
   12a02:	7953      	ldrb	r3, [r2, #5]
   12a04:	2b41      	cmp	r3, #65	; 0x41
   12a06:	d001      	beq.n	12a0c <_nl_load_domain+0x9a4>
   12a08:	2300      	movs	r3, #0
   12a0a:	e475      	b.n	122f8 <_nl_load_domain+0x290>
   12a0c:	7993      	ldrb	r3, [r2, #6]
   12a0e:	2b53      	cmp	r3, #83	; 0x53
   12a10:	d03a      	beq.n	12a88 <_nl_load_domain+0xa20>
   12a12:	2300      	movs	r3, #0
   12a14:	e470      	b.n	122f8 <_nl_load_domain+0x290>
   12a16:	f1b9 0f4d 	cmp.w	r9, #77	; 0x4d
   12a1a:	d109      	bne.n	12a30 <_nl_load_domain+0x9c8>
   12a1c:	7953      	ldrb	r3, [r2, #5]
   12a1e:	2b41      	cmp	r3, #65	; 0x41
   12a20:	d001      	beq.n	12a26 <_nl_load_domain+0x9be>
   12a22:	2300      	movs	r3, #0
   12a24:	e468      	b.n	122f8 <_nl_load_domain+0x290>
   12a26:	7993      	ldrb	r3, [r2, #6]
   12a28:	2b58      	cmp	r3, #88	; 0x58
   12a2a:	d05a      	beq.n	12ae2 <_nl_load_domain+0xa7a>
   12a2c:	2300      	movs	r3, #0
   12a2e:	e463      	b.n	122f8 <_nl_load_domain+0x290>
   12a30:	f1b9 0f50 	cmp.w	r9, #80	; 0x50
   12a34:	d109      	bne.n	12a4a <_nl_load_domain+0x9e2>
   12a36:	7953      	ldrb	r3, [r2, #5]
   12a38:	2b54      	cmp	r3, #84	; 0x54
   12a3a:	d001      	beq.n	12a40 <_nl_load_domain+0x9d8>
   12a3c:	2300      	movs	r3, #0
   12a3e:	e45b      	b.n	122f8 <_nl_load_domain+0x290>
   12a40:	7993      	ldrb	r3, [r2, #6]
   12a42:	2b52      	cmp	r3, #82	; 0x52
   12a44:	d003      	beq.n	12a4e <_nl_load_domain+0x9e6>
   12a46:	2300      	movs	r3, #0
   12a48:	e456      	b.n	122f8 <_nl_load_domain+0x290>
   12a4a:	2300      	movs	r3, #0
   12a4c:	e454      	b.n	122f8 <_nl_load_domain+0x290>
   12a4e:	79d3      	ldrb	r3, [r2, #7]
   12a50:	2b00      	cmp	r3, #0
   12a52:	d140      	bne.n	12ad6 <_nl_load_domain+0xa6e>
   12a54:	2864      	cmp	r0, #100	; 0x64
   12a56:	d03c      	beq.n	12ad2 <_nl_load_domain+0xa6a>
   12a58:	f1b8 0f00 	cmp.w	r8, #0
   12a5c:	d137      	bne.n	12ace <_nl_load_domain+0xa66>
   12a5e:	286f      	cmp	r0, #111	; 0x6f
   12a60:	d033      	beq.n	12aca <_nl_load_domain+0xa62>
   12a62:	2875      	cmp	r0, #117	; 0x75
   12a64:	d03b      	beq.n	12ade <_nl_load_domain+0xa76>
   12a66:	2878      	cmp	r0, #120	; 0x78
   12a68:	d037      	beq.n	12ada <_nl_load_domain+0xa72>
   12a6a:	2858      	cmp	r0, #88	; 0x58
   12a6c:	f040 8167 	bne.w	12d3e <_nl_load_domain+0xcd6>
   12a70:	9b10      	ldr	r3, [sp, #64]	; 0x40
   12a72:	e441      	b.n	122f8 <_nl_load_domain+0x290>
   12a74:	f641 53b0 	movw	r3, #7600	; 0x1db0
   12a78:	f2c0 0305 	movt	r3, #5
   12a7c:	e43c      	b.n	122f8 <_nl_load_domain+0x290>
   12a7e:	79d3      	ldrb	r3, [r2, #7]
   12a80:	2b53      	cmp	r3, #83	; 0x53
   12a82:	d045      	beq.n	12b10 <_nl_load_domain+0xaa8>
   12a84:	2300      	movs	r3, #0
   12a86:	e437      	b.n	122f8 <_nl_load_domain+0x290>
   12a88:	79d3      	ldrb	r3, [r2, #7]
   12a8a:	2b54      	cmp	r3, #84	; 0x54
   12a8c:	f000 8165 	beq.w	12d5a <_nl_load_domain+0xcf2>
   12a90:	2300      	movs	r3, #0
   12a92:	e431      	b.n	122f8 <_nl_load_domain+0x290>
   12a94:	9b0f      	ldr	r3, [sp, #60]	; 0x3c
   12a96:	e42f      	b.n	122f8 <_nl_load_domain+0x290>
   12a98:	9b0c      	ldr	r3, [sp, #48]	; 0x30
   12a9a:	e42d      	b.n	122f8 <_nl_load_domain+0x290>
   12a9c:	9b0b      	ldr	r3, [sp, #44]	; 0x2c
   12a9e:	e42b      	b.n	122f8 <_nl_load_domain+0x290>
   12aa0:	9b0d      	ldr	r3, [sp, #52]	; 0x34
   12aa2:	e429      	b.n	122f8 <_nl_load_domain+0x290>
   12aa4:	9b0c      	ldr	r3, [sp, #48]	; 0x30
   12aa6:	e427      	b.n	122f8 <_nl_load_domain+0x290>
   12aa8:	f641 53b8 	movw	r3, #7608	; 0x1db8
   12aac:	f2c0 0305 	movt	r3, #5
   12ab0:	e422      	b.n	122f8 <_nl_load_domain+0x290>
   12ab2:	f641 53ac 	movw	r3, #7596	; 0x1dac
   12ab6:	f2c0 0305 	movt	r3, #5
   12aba:	e41d      	b.n	122f8 <_nl_load_domain+0x290>
   12abc:	f641 53c4 	movw	r3, #7620	; 0x1dc4
   12ac0:	f2c0 0305 	movt	r3, #5
   12ac4:	e418      	b.n	122f8 <_nl_load_domain+0x290>
   12ac6:	9b11      	ldr	r3, [sp, #68]	; 0x44
   12ac8:	e416      	b.n	122f8 <_nl_load_domain+0x290>
   12aca:	9b0d      	ldr	r3, [sp, #52]	; 0x34
   12acc:	e414      	b.n	122f8 <_nl_load_domain+0x290>
   12ace:	9b0c      	ldr	r3, [sp, #48]	; 0x30
   12ad0:	e412      	b.n	122f8 <_nl_load_domain+0x290>
   12ad2:	9b0b      	ldr	r3, [sp, #44]	; 0x2c
   12ad4:	e410      	b.n	122f8 <_nl_load_domain+0x290>
   12ad6:	2300      	movs	r3, #0
   12ad8:	e40e      	b.n	122f8 <_nl_load_domain+0x290>
   12ada:	9b0f      	ldr	r3, [sp, #60]	; 0x3c
   12adc:	e40c      	b.n	122f8 <_nl_load_domain+0x290>
   12ade:	9b0e      	ldr	r3, [sp, #56]	; 0x38
   12ae0:	e40a      	b.n	122f8 <_nl_load_domain+0x290>
   12ae2:	79d3      	ldrb	r3, [r2, #7]
   12ae4:	2b00      	cmp	r3, #0
   12ae6:	d140      	bne.n	12b6a <_nl_load_domain+0xb02>
   12ae8:	2864      	cmp	r0, #100	; 0x64
   12aea:	d03b      	beq.n	12b64 <_nl_load_domain+0xafc>
   12aec:	f1b8 0f00 	cmp.w	r8, #0
   12af0:	d132      	bne.n	12b58 <_nl_load_domain+0xaf0>
   12af2:	286f      	cmp	r0, #111	; 0x6f
   12af4:	d02a      	beq.n	12b4c <_nl_load_domain+0xae4>
   12af6:	2875      	cmp	r0, #117	; 0x75
   12af8:	d016      	beq.n	12b28 <_nl_load_domain+0xac0>
   12afa:	2878      	cmp	r0, #120	; 0x78
   12afc:	d00e      	beq.n	12b1c <_nl_load_domain+0xab4>
   12afe:	2858      	cmp	r0, #88	; 0x58
   12b00:	f040 811d 	bne.w	12d3e <_nl_load_domain+0xcd6>
   12b04:	f641 53bc 	movw	r3, #7612	; 0x1dbc
   12b08:	f2c0 0305 	movt	r3, #5
   12b0c:	f7ff bbf4 	b.w	122f8 <_nl_load_domain+0x290>
   12b10:	7a13      	ldrb	r3, [r2, #8]
   12b12:	2b54      	cmp	r3, #84	; 0x54
   12b14:	d00e      	beq.n	12b34 <_nl_load_domain+0xacc>
   12b16:	2300      	movs	r3, #0
   12b18:	f7ff bbee 	b.w	122f8 <_nl_load_domain+0x290>
   12b1c:	f641 53b0 	movw	r3, #7600	; 0x1db0
   12b20:	f2c0 0305 	movt	r3, #5
   12b24:	f7ff bbe8 	b.w	122f8 <_nl_load_domain+0x290>
   12b28:	f641 53b8 	movw	r3, #7608	; 0x1db8
   12b2c:	f2c0 0305 	movt	r3, #5
   12b30:	f7ff bbe2 	b.w	122f8 <_nl_load_domain+0x290>
   12b34:	7a53      	ldrb	r3, [r2, #9]
   12b36:	2b38      	cmp	r3, #56	; 0x38
   12b38:	d06e      	beq.n	12c18 <_nl_load_domain+0xbb0>
   12b3a:	2b31      	cmp	r3, #49	; 0x31
   12b3c:	d066      	beq.n	12c0c <_nl_load_domain+0xba4>
   12b3e:	2b33      	cmp	r3, #51	; 0x33
   12b40:	d01c      	beq.n	12b7c <_nl_load_domain+0xb14>
   12b42:	2b36      	cmp	r3, #54	; 0x36
   12b44:	d014      	beq.n	12b70 <_nl_load_domain+0xb08>
   12b46:	2300      	movs	r3, #0
   12b48:	f7ff bbd6 	b.w	122f8 <_nl_load_domain+0x290>
   12b4c:	f641 53ac 	movw	r3, #7596	; 0x1dac
   12b50:	f2c0 0305 	movt	r3, #5
   12b54:	f7ff bbd0 	b.w	122f8 <_nl_load_domain+0x290>
   12b58:	f641 53c4 	movw	r3, #7620	; 0x1dc4
   12b5c:	f2c0 0305 	movt	r3, #5
   12b60:	f7ff bbca 	b.w	122f8 <_nl_load_domain+0x290>
   12b64:	9b11      	ldr	r3, [sp, #68]	; 0x44
   12b66:	f7ff bbc7 	b.w	122f8 <_nl_load_domain+0x290>
   12b6a:	2300      	movs	r3, #0
   12b6c:	f7ff bbc4 	b.w	122f8 <_nl_load_domain+0x290>
   12b70:	7a93      	ldrb	r3, [r2, #10]
   12b72:	2b34      	cmp	r3, #52	; 0x34
   12b74:	d008      	beq.n	12b88 <_nl_load_domain+0xb20>
   12b76:	2300      	movs	r3, #0
   12b78:	f7ff bbbe 	b.w	122f8 <_nl_load_domain+0x290>
   12b7c:	7a93      	ldrb	r3, [r2, #10]
   12b7e:	2b32      	cmp	r3, #50	; 0x32
   12b80:	d01b      	beq.n	12bba <_nl_load_domain+0xb52>
   12b82:	2300      	movs	r3, #0
   12b84:	f7ff bbb8 	b.w	122f8 <_nl_load_domain+0x290>
   12b88:	7ad3      	ldrb	r3, [r2, #11]
   12b8a:	2b00      	cmp	r3, #0
   12b8c:	d13b      	bne.n	12c06 <_nl_load_domain+0xb9e>
   12b8e:	2864      	cmp	r0, #100	; 0x64
   12b90:	d036      	beq.n	12c00 <_nl_load_domain+0xb98>
   12b92:	f1b8 0f00 	cmp.w	r8, #0
   12b96:	f040 808f 	bne.w	12cb8 <_nl_load_domain+0xc50>
   12b9a:	286f      	cmp	r0, #111	; 0x6f
   12b9c:	f000 8086 	beq.w	12cac <_nl_load_domain+0xc44>
   12ba0:	2875      	cmp	r0, #117	; 0x75
   12ba2:	d027      	beq.n	12bf4 <_nl_load_domain+0xb8c>
   12ba4:	2878      	cmp	r0, #120	; 0x78
   12ba6:	d01f      	beq.n	12be8 <_nl_load_domain+0xb80>
   12ba8:	2858      	cmp	r0, #88	; 0x58
   12baa:	f040 80c8 	bne.w	12d3e <_nl_load_domain+0xcd6>
   12bae:	f641 53bc 	movw	r3, #7612	; 0x1dbc
   12bb2:	f2c0 0305 	movt	r3, #5
   12bb6:	f7ff bb9f 	b.w	122f8 <_nl_load_domain+0x290>
   12bba:	7ad3      	ldrb	r3, [r2, #11]
   12bbc:	2b00      	cmp	r3, #0
   12bbe:	f040 8090 	bne.w	12ce2 <_nl_load_domain+0xc7a>
   12bc2:	2864      	cmp	r0, #100	; 0x64
   12bc4:	f000 808a 	beq.w	12cdc <_nl_load_domain+0xc74>
   12bc8:	f1b8 0f00 	cmp.w	r8, #0
   12bcc:	f040 8083 	bne.w	12cd6 <_nl_load_domain+0xc6e>
   12bd0:	286f      	cmp	r0, #111	; 0x6f
   12bd2:	d07d      	beq.n	12cd0 <_nl_load_domain+0xc68>
   12bd4:	2875      	cmp	r0, #117	; 0x75
   12bd6:	d078      	beq.n	12cca <_nl_load_domain+0xc62>
   12bd8:	2878      	cmp	r0, #120	; 0x78
   12bda:	d073      	beq.n	12cc4 <_nl_load_domain+0xc5c>
   12bdc:	2858      	cmp	r0, #88	; 0x58
   12bde:	f040 80ae 	bne.w	12d3e <_nl_load_domain+0xcd6>
   12be2:	9b10      	ldr	r3, [sp, #64]	; 0x40
   12be4:	f7ff bb88 	b.w	122f8 <_nl_load_domain+0x290>
   12be8:	f641 53b0 	movw	r3, #7600	; 0x1db0
   12bec:	f2c0 0305 	movt	r3, #5
   12bf0:	f7ff bb82 	b.w	122f8 <_nl_load_domain+0x290>
   12bf4:	f641 53b8 	movw	r3, #7608	; 0x1db8
   12bf8:	f2c0 0305 	movt	r3, #5
   12bfc:	f7ff bb7c 	b.w	122f8 <_nl_load_domain+0x290>
   12c00:	9b11      	ldr	r3, [sp, #68]	; 0x44
   12c02:	f7ff bb79 	b.w	122f8 <_nl_load_domain+0x290>
   12c06:	2300      	movs	r3, #0
   12c08:	f7ff bb76 	b.w	122f8 <_nl_load_domain+0x290>
   12c0c:	7a93      	ldrb	r3, [r2, #10]
   12c0e:	2b36      	cmp	r3, #54	; 0x36
   12c10:	d016      	beq.n	12c40 <_nl_load_domain+0xbd8>
   12c12:	2300      	movs	r3, #0
   12c14:	f7ff bb70 	b.w	122f8 <_nl_load_domain+0x290>
   12c18:	7a93      	ldrb	r3, [r2, #10]
   12c1a:	2b00      	cmp	r3, #0
   12c1c:	d143      	bne.n	12ca6 <_nl_load_domain+0xc3e>
   12c1e:	2864      	cmp	r0, #100	; 0x64
   12c20:	d03e      	beq.n	12ca0 <_nl_load_domain+0xc38>
   12c22:	f1b8 0f00 	cmp.w	r8, #0
   12c26:	d138      	bne.n	12c9a <_nl_load_domain+0xc32>
   12c28:	286f      	cmp	r0, #111	; 0x6f
   12c2a:	d033      	beq.n	12c94 <_nl_load_domain+0xc2c>
   12c2c:	2875      	cmp	r0, #117	; 0x75
   12c2e:	d01c      	beq.n	12c6a <_nl_load_domain+0xc02>
   12c30:	2878      	cmp	r0, #120	; 0x78
   12c32:	d017      	beq.n	12c64 <_nl_load_domain+0xbfc>
   12c34:	2858      	cmp	r0, #88	; 0x58
   12c36:	f040 8082 	bne.w	12d3e <_nl_load_domain+0xcd6>
   12c3a:	9b10      	ldr	r3, [sp, #64]	; 0x40
   12c3c:	f7ff bb5c 	b.w	122f8 <_nl_load_domain+0x290>
   12c40:	7ad3      	ldrb	r3, [r2, #11]
   12c42:	bb23      	cbnz	r3, 12c8e <_nl_load_domain+0xc26>
   12c44:	2864      	cmp	r0, #100	; 0x64
   12c46:	d01f      	beq.n	12c88 <_nl_load_domain+0xc20>
   12c48:	f1b8 0f00 	cmp.w	r8, #0
   12c4c:	d119      	bne.n	12c82 <_nl_load_domain+0xc1a>
   12c4e:	286f      	cmp	r0, #111	; 0x6f
   12c50:	d014      	beq.n	12c7c <_nl_load_domain+0xc14>
   12c52:	2875      	cmp	r0, #117	; 0x75
   12c54:	d00f      	beq.n	12c76 <_nl_load_domain+0xc0e>
   12c56:	2878      	cmp	r0, #120	; 0x78
   12c58:	d00a      	beq.n	12c70 <_nl_load_domain+0xc08>
   12c5a:	2858      	cmp	r0, #88	; 0x58
   12c5c:	d16f      	bne.n	12d3e <_nl_load_domain+0xcd6>
   12c5e:	9b10      	ldr	r3, [sp, #64]	; 0x40
   12c60:	f7ff bb4a 	b.w	122f8 <_nl_load_domain+0x290>
   12c64:	9b0f      	ldr	r3, [sp, #60]	; 0x3c
   12c66:	f7ff bb47 	b.w	122f8 <_nl_load_domain+0x290>
   12c6a:	9b0e      	ldr	r3, [sp, #56]	; 0x38
   12c6c:	f7ff bb44 	b.w	122f8 <_nl_load_domain+0x290>
   12c70:	9b0f      	ldr	r3, [sp, #60]	; 0x3c
   12c72:	f7ff bb41 	b.w	122f8 <_nl_load_domain+0x290>
   12c76:	9b0e      	ldr	r3, [sp, #56]	; 0x38
   12c78:	f7ff bb3e 	b.w	122f8 <_nl_load_domain+0x290>
   12c7c:	9b0d      	ldr	r3, [sp, #52]	; 0x34
   12c7e:	f7ff bb3b 	b.w	122f8 <_nl_load_domain+0x290>
   12c82:	9b0c      	ldr	r3, [sp, #48]	; 0x30
   12c84:	f7ff bb38 	b.w	122f8 <_nl_load_domain+0x290>
   12c88:	9b0b      	ldr	r3, [sp, #44]	; 0x2c
   12c8a:	f7ff bb35 	b.w	122f8 <_nl_load_domain+0x290>
   12c8e:	2300      	movs	r3, #0
   12c90:	f7ff bb32 	b.w	122f8 <_nl_load_domain+0x290>
   12c94:	9b0d      	ldr	r3, [sp, #52]	; 0x34
   12c96:	f7ff bb2f 	b.w	122f8 <_nl_load_domain+0x290>
   12c9a:	9b0c      	ldr	r3, [sp, #48]	; 0x30
   12c9c:	f7ff bb2c 	b.w	122f8 <_nl_load_domain+0x290>
   12ca0:	9b0b      	ldr	r3, [sp, #44]	; 0x2c
   12ca2:	f7ff bb29 	b.w	122f8 <_nl_load_domain+0x290>
   12ca6:	2300      	movs	r3, #0
   12ca8:	f7ff bb26 	b.w	122f8 <_nl_load_domain+0x290>
   12cac:	f641 53ac 	movw	r3, #7596	; 0x1dac
   12cb0:	f2c0 0305 	movt	r3, #5
   12cb4:	f7ff bb20 	b.w	122f8 <_nl_load_domain+0x290>
   12cb8:	f641 53c4 	movw	r3, #7620	; 0x1dc4
   12cbc:	f2c0 0305 	movt	r3, #5
   12cc0:	f7ff bb1a 	b.w	122f8 <_nl_load_domain+0x290>
   12cc4:	9b0f      	ldr	r3, [sp, #60]	; 0x3c
   12cc6:	f7ff bb17 	b.w	122f8 <_nl_load_domain+0x290>
   12cca:	9b0e      	ldr	r3, [sp, #56]	; 0x38
   12ccc:	f7ff bb14 	b.w	122f8 <_nl_load_domain+0x290>
   12cd0:	9b0d      	ldr	r3, [sp, #52]	; 0x34
   12cd2:	f7ff bb11 	b.w	122f8 <_nl_load_domain+0x290>
   12cd6:	9b0c      	ldr	r3, [sp, #48]	; 0x30
   12cd8:	f7ff bb0e 	b.w	122f8 <_nl_load_domain+0x290>
   12cdc:	9b0b      	ldr	r3, [sp, #44]	; 0x2c
   12cde:	f7ff bb0b 	b.w	122f8 <_nl_load_domain+0x290>
   12ce2:	2300      	movs	r3, #0
   12ce4:	f7ff bb08 	b.w	122f8 <_nl_load_domain+0x290>
   12ce8:	f854 3027 	ldr.w	r3, [r4, r7, lsl #2]
   12cec:	e5e7      	b.n	128be <_nl_load_domain+0x856>
   12cee:	9b0b      	ldr	r3, [sp, #44]	; 0x2c
   12cf0:	f7ff bb02 	b.w	122f8 <_nl_load_domain+0x290>
   12cf4:	9b0d      	ldr	r3, [sp, #52]	; 0x34
   12cf6:	f7ff baff 	b.w	122f8 <_nl_load_domain+0x290>
   12cfa:	9b0c      	ldr	r3, [sp, #48]	; 0x30
   12cfc:	f7ff bafc 	b.w	122f8 <_nl_load_domain+0x290>
   12d00:	f854 3027 	ldr.w	r3, [r4, r7, lsl #2]
   12d04:	e531      	b.n	1276a <_nl_load_domain+0x702>
   12d06:	9b0e      	ldr	r3, [sp, #56]	; 0x38
   12d08:	2201      	movs	r2, #1
   12d0a:	920c      	str	r2, [sp, #48]	; 0x30
   12d0c:	68db      	ldr	r3, [r3, #12]
   12d0e:	e543      	b.n	12798 <_nl_load_domain+0x730>
   12d10:	9b0f      	ldr	r3, [sp, #60]	; 0x3c
   12d12:	f7ff baf1 	b.w	122f8 <_nl_load_domain+0x290>
   12d16:	9b0e      	ldr	r3, [sp, #56]	; 0x38
   12d18:	f7ff baee 	b.w	122f8 <_nl_load_domain+0x290>
   12d1c:	9a0d      	ldr	r2, [sp, #52]	; 0x34
   12d1e:	f8dd 8040 	ldr.w	r8, [sp, #64]	; 0x40
   12d22:	f852 2027 	ldr.w	r2, [r2, r7, lsl #2]
   12d26:	eb0a 0502 	add.w	r5, sl, r2
   12d2a:	f85a 4002 	ldr.w	r4, [sl, r2]
   12d2e:	4454      	add	r4, sl
   12d30:	e5dd      	b.n	128ee <_nl_load_domain+0x886>
   12d32:	9a0d      	ldr	r2, [sp, #52]	; 0x34
   12d34:	f8dd 8040 	ldr.w	r8, [sp, #64]	; 0x40
   12d38:	f852 2027 	ldr.w	r2, [r2, r7, lsl #2]
   12d3c:	e538      	b.n	127b0 <_nl_load_domain+0x748>
   12d3e:	f001 f97b 	bl	14038 <abort>
   12d42:	9b0f      	ldr	r3, [sp, #60]	; 0x3c
   12d44:	f7ff bad8 	b.w	122f8 <_nl_load_domain+0x290>
   12d48:	9b0e      	ldr	r3, [sp, #56]	; 0x38
   12d4a:	f7ff bad5 	b.w	122f8 <_nl_load_domain+0x290>
   12d4e:	9b0d      	ldr	r3, [sp, #52]	; 0x34
   12d50:	f7ff bad2 	b.w	122f8 <_nl_load_domain+0x290>
   12d54:	9b0e      	ldr	r3, [sp, #56]	; 0x38
   12d56:	f7ff bacf 	b.w	122f8 <_nl_load_domain+0x290>
   12d5a:	7a13      	ldrb	r3, [r2, #8]
   12d5c:	2b38      	cmp	r3, #56	; 0x38
   12d5e:	d008      	beq.n	12d72 <_nl_load_domain+0xd0a>
   12d60:	2b31      	cmp	r3, #49	; 0x31
   12d62:	d02d      	beq.n	12dc0 <_nl_load_domain+0xd58>
   12d64:	2b33      	cmp	r3, #51	; 0x33
   12d66:	d025      	beq.n	12db4 <_nl_load_domain+0xd4c>
   12d68:	2b36      	cmp	r3, #54	; 0x36
   12d6a:	d014      	beq.n	12d96 <_nl_load_domain+0xd2e>
   12d6c:	2300      	movs	r3, #0
   12d6e:	f7ff bac3 	b.w	122f8 <_nl_load_domain+0x290>
   12d72:	7a53      	ldrb	r3, [r2, #9]
   12d74:	b9db      	cbnz	r3, 12dae <_nl_load_domain+0xd46>
   12d76:	2864      	cmp	r0, #100	; 0x64
   12d78:	d016      	beq.n	12da8 <_nl_load_domain+0xd40>
   12d7a:	f1b8 0f00 	cmp.w	r8, #0
   12d7e:	d171      	bne.n	12e64 <_nl_load_domain+0xdfc>
   12d80:	286f      	cmp	r0, #111	; 0x6f
   12d82:	d06c      	beq.n	12e5e <_nl_load_domain+0xdf6>
   12d84:	2875      	cmp	r0, #117	; 0x75
   12d86:	d070      	beq.n	12e6a <_nl_load_domain+0xe02>
   12d88:	2878      	cmp	r0, #120	; 0x78
   12d8a:	d00a      	beq.n	12da2 <_nl_load_domain+0xd3a>
   12d8c:	2858      	cmp	r0, #88	; 0x58
   12d8e:	d1d6      	bne.n	12d3e <_nl_load_domain+0xcd6>
   12d90:	9b10      	ldr	r3, [sp, #64]	; 0x40
   12d92:	f7ff bab1 	b.w	122f8 <_nl_load_domain+0x290>
   12d96:	7a53      	ldrb	r3, [r2, #9]
   12d98:	2b34      	cmp	r3, #52	; 0x34
   12d9a:	d069      	beq.n	12e70 <_nl_load_domain+0xe08>
   12d9c:	2300      	movs	r3, #0
   12d9e:	f7ff baab 	b.w	122f8 <_nl_load_domain+0x290>
   12da2:	9b0f      	ldr	r3, [sp, #60]	; 0x3c
   12da4:	f7ff baa8 	b.w	122f8 <_nl_load_domain+0x290>
   12da8:	9b0b      	ldr	r3, [sp, #44]	; 0x2c
   12daa:	f7ff baa5 	b.w	122f8 <_nl_load_domain+0x290>
   12dae:	2300      	movs	r3, #0
   12db0:	f7ff baa2 	b.w	122f8 <_nl_load_domain+0x290>
   12db4:	7a53      	ldrb	r3, [r2, #9]
   12db6:	2b32      	cmp	r3, #50	; 0x32
   12db8:	d008      	beq.n	12dcc <_nl_load_domain+0xd64>
   12dba:	2300      	movs	r3, #0
   12dbc:	f7ff ba9c 	b.w	122f8 <_nl_load_domain+0x290>
   12dc0:	7a53      	ldrb	r3, [r2, #9]
   12dc2:	2b36      	cmp	r3, #54	; 0x36
   12dc4:	d015      	beq.n	12df2 <_nl_load_domain+0xd8a>
   12dc6:	2300      	movs	r3, #0
   12dc8:	f7ff ba96 	b.w	122f8 <_nl_load_domain+0x290>
   12dcc:	7a93      	ldrb	r3, [r2, #10]
   12dce:	2b00      	cmp	r3, #0
   12dd0:	d142      	bne.n	12e58 <_nl_load_domain+0xdf0>
   12dd2:	2864      	cmp	r0, #100	; 0x64
   12dd4:	d03d      	beq.n	12e52 <_nl_load_domain+0xdea>
   12dd6:	f1b8 0f00 	cmp.w	r8, #0
   12dda:	d137      	bne.n	12e4c <_nl_load_domain+0xde4>
   12ddc:	286f      	cmp	r0, #111	; 0x6f
   12dde:	d032      	beq.n	12e46 <_nl_load_domain+0xdde>
   12de0:	2875      	cmp	r0, #117	; 0x75
   12de2:	d01b      	beq.n	12e1c <_nl_load_domain+0xdb4>
   12de4:	2878      	cmp	r0, #120	; 0x78
   12de6:	d016      	beq.n	12e16 <_nl_load_domain+0xdae>
   12de8:	2858      	cmp	r0, #88	; 0x58
   12dea:	d1a8      	bne.n	12d3e <_nl_load_domain+0xcd6>
   12dec:	9b10      	ldr	r3, [sp, #64]	; 0x40
   12dee:	f7ff ba83 	b.w	122f8 <_nl_load_domain+0x290>
   12df2:	7a93      	ldrb	r3, [r2, #10]
   12df4:	bb23      	cbnz	r3, 12e40 <_nl_load_domain+0xdd8>
   12df6:	2864      	cmp	r0, #100	; 0x64
   12df8:	d01f      	beq.n	12e3a <_nl_load_domain+0xdd2>
   12dfa:	f1b8 0f00 	cmp.w	r8, #0
   12dfe:	d119      	bne.n	12e34 <_nl_load_domain+0xdcc>
   12e00:	286f      	cmp	r0, #111	; 0x6f
   12e02:	d014      	beq.n	12e2e <_nl_load_domain+0xdc6>
   12e04:	2875      	cmp	r0, #117	; 0x75
   12e06:	d00f      	beq.n	12e28 <_nl_load_domain+0xdc0>
   12e08:	2878      	cmp	r0, #120	; 0x78
   12e0a:	d00a      	beq.n	12e22 <_nl_load_domain+0xdba>
   12e0c:	2858      	cmp	r0, #88	; 0x58
   12e0e:	d196      	bne.n	12d3e <_nl_load_domain+0xcd6>
   12e10:	9b10      	ldr	r3, [sp, #64]	; 0x40
   12e12:	f7ff ba71 	b.w	122f8 <_nl_load_domain+0x290>
   12e16:	9b0f      	ldr	r3, [sp, #60]	; 0x3c
   12e18:	f7ff ba6e 	b.w	122f8 <_nl_load_domain+0x290>
   12e1c:	9b0e      	ldr	r3, [sp, #56]	; 0x38
   12e1e:	f7ff ba6b 	b.w	122f8 <_nl_load_domain+0x290>
   12e22:	9b0f      	ldr	r3, [sp, #60]	; 0x3c
   12e24:	f7ff ba68 	b.w	122f8 <_nl_load_domain+0x290>
   12e28:	9b0e      	ldr	r3, [sp, #56]	; 0x38
   12e2a:	f7ff ba65 	b.w	122f8 <_nl_load_domain+0x290>
   12e2e:	9b0d      	ldr	r3, [sp, #52]	; 0x34
   12e30:	f7ff ba62 	b.w	122f8 <_nl_load_domain+0x290>
   12e34:	9b0c      	ldr	r3, [sp, #48]	; 0x30
   12e36:	f7ff ba5f 	b.w	122f8 <_nl_load_domain+0x290>
   12e3a:	9b0b      	ldr	r3, [sp, #44]	; 0x2c
   12e3c:	f7ff ba5c 	b.w	122f8 <_nl_load_domain+0x290>
   12e40:	2300      	movs	r3, #0
   12e42:	f7ff ba59 	b.w	122f8 <_nl_load_domain+0x290>
   12e46:	9b0d      	ldr	r3, [sp, #52]	; 0x34
   12e48:	f7ff ba56 	b.w	122f8 <_nl_load_domain+0x290>
   12e4c:	9b0c      	ldr	r3, [sp, #48]	; 0x30
   12e4e:	f7ff ba53 	b.w	122f8 <_nl_load_domain+0x290>
   12e52:	9b0b      	ldr	r3, [sp, #44]	; 0x2c
   12e54:	f7ff ba50 	b.w	122f8 <_nl_load_domain+0x290>
   12e58:	2300      	movs	r3, #0
   12e5a:	f7ff ba4d 	b.w	122f8 <_nl_load_domain+0x290>
   12e5e:	9b0d      	ldr	r3, [sp, #52]	; 0x34
   12e60:	f7ff ba4a 	b.w	122f8 <_nl_load_domain+0x290>
   12e64:	9b0c      	ldr	r3, [sp, #48]	; 0x30
   12e66:	f7ff ba47 	b.w	122f8 <_nl_load_domain+0x290>
   12e6a:	9b0e      	ldr	r3, [sp, #56]	; 0x38
   12e6c:	f7ff ba44 	b.w	122f8 <_nl_load_domain+0x290>
   12e70:	7a93      	ldrb	r3, [r2, #10]
   12e72:	b99b      	cbnz	r3, 12e9c <_nl_load_domain+0xe34>
   12e74:	2864      	cmp	r0, #100	; 0x64
   12e76:	d02c      	beq.n	12ed2 <_nl_load_domain+0xe6a>
   12e78:	f1b8 0f00 	cmp.w	r8, #0
   12e7c:	d123      	bne.n	12ec6 <_nl_load_domain+0xe5e>
   12e7e:	286f      	cmp	r0, #111	; 0x6f
   12e80:	d01b      	beq.n	12eba <_nl_load_domain+0xe52>
   12e82:	2875      	cmp	r0, #117	; 0x75
   12e84:	d013      	beq.n	12eae <_nl_load_domain+0xe46>
   12e86:	2878      	cmp	r0, #120	; 0x78
   12e88:	d00b      	beq.n	12ea2 <_nl_load_domain+0xe3a>
   12e8a:	2858      	cmp	r0, #88	; 0x58
   12e8c:	f47f af57 	bne.w	12d3e <_nl_load_domain+0xcd6>
   12e90:	f641 53bc 	movw	r3, #7612	; 0x1dbc
   12e94:	f2c0 0305 	movt	r3, #5
   12e98:	f7ff ba2e 	b.w	122f8 <_nl_load_domain+0x290>
   12e9c:	2300      	movs	r3, #0
   12e9e:	f7ff ba2b 	b.w	122f8 <_nl_load_domain+0x290>
   12ea2:	f641 53b0 	movw	r3, #7600	; 0x1db0
   12ea6:	f2c0 0305 	movt	r3, #5
   12eaa:	f7ff ba25 	b.w	122f8 <_nl_load_domain+0x290>
   12eae:	f641 53b8 	movw	r3, #7608	; 0x1db8
   12eb2:	f2c0 0305 	movt	r3, #5
   12eb6:	f7ff ba1f 	b.w	122f8 <_nl_load_domain+0x290>
   12eba:	f641 53ac 	movw	r3, #7596	; 0x1dac
   12ebe:	f2c0 0305 	movt	r3, #5
   12ec2:	f7ff ba19 	b.w	122f8 <_nl_load_domain+0x290>
   12ec6:	f641 53c4 	movw	r3, #7620	; 0x1dc4
   12eca:	f2c0 0305 	movt	r3, #5
   12ece:	f7ff ba13 	b.w	122f8 <_nl_load_domain+0x290>
   12ed2:	9b11      	ldr	r3, [sp, #68]	; 0x44
   12ed4:	f7ff ba10 	b.w	122f8 <_nl_load_domain+0x290>

00012ed8 <alias_compare>:
   12ed8:	f640 32f4 	movw	r2, #3060	; 0xbf4
   12edc:	6809      	ldr	r1, [r1, #0]
   12ede:	6800      	ldr	r0, [r0, #0]
   12ee0:	f2c0 0206 	movt	r2, #6
   12ee4:	f00c bfc8 	b.w	1fe78 <__strcasecmp_l>

00012ee8 <read_alias_file>:
   12ee8:	460a      	mov	r2, r1
   12eea:	f101 031c 	add.w	r3, r1, #28
   12eee:	f647 3198 	movw	r1, #31640	; 0x7b98
   12ef2:	f2c0 0107 	movt	r1, #7
   12ef6:	e92d 4ff0 	stmdb	sp!, {r4, r5, r6, r7, r8, r9, sl, fp, lr}
   12efa:	f023 0307 	bic.w	r3, r3, #7
   12efe:	b0f3      	sub	sp, #460	; 0x1cc
   12f00:	460c      	mov	r4, r1
   12f02:	af00      	add	r7, sp, #0
   12f04:	ebad 0d03 	sub.w	sp, sp, r3
   12f08:	6823      	ldr	r3, [r4, #0]
   12f0a:	61f9      	str	r1, [r7, #28]
   12f0c:	4601      	mov	r1, r0
   12f0e:	466d      	mov	r5, sp
   12f10:	4628      	mov	r0, r5
   12f12:	f8c7 31c4 	str.w	r3, [r7, #452]	; 0x1c4
   12f16:	f00c ffa9 	bl	1fe6c <__mempcpy>
   12f1a:	f641 53cc 	movw	r3, #7628	; 0x1dcc
   12f1e:	f2c0 0305 	movt	r3, #5
   12f22:	4604      	mov	r4, r0
   12f24:	cb07      	ldmia	r3!, {r0, r1, r2}
   12f26:	881b      	ldrh	r3, [r3, #0]
   12f28:	6061      	str	r1, [r4, #4]
   12f2a:	f641 51c8 	movw	r1, #7624	; 0x1dc8
   12f2e:	6020      	str	r0, [r4, #0]
   12f30:	f2c0 0105 	movt	r1, #5
   12f34:	81a3      	strh	r3, [r4, #12]
   12f36:	4628      	mov	r0, r5
   12f38:	60a2      	str	r2, [r4, #8]
   12f3a:	f002 fbb1 	bl	156a0 <_IO_new_fopen>
   12f3e:	4680      	mov	r8, r0
   12f40:	2800      	cmp	r0, #0
   12f42:	f000 812d 	beq.w	131a0 <read_alias_file+0x2b8>
   12f46:	6803      	ldr	r3, [r0, #0]
   12f48:	f443 4200 	orr.w	r2, r3, #32768	; 0x8000
   12f4c:	f013 0310 	ands.w	r3, r3, #16
   12f50:	6002      	str	r2, [r0, #0]
   12f52:	f040 814a 	bne.w	131ea <read_alias_file+0x302>
   12f56:	f249 4b38 	movw	fp, #37944	; 0x9438
   12f5a:	f2c0 0b07 	movt	fp, #7
   12f5e:	ee1d af70 	mrc	15, 0, sl, cr13, cr0, {3}
   12f62:	f64f 4254 	movw	r2, #64596	; 0xfc54
   12f66:	f2c0 0207 	movt	r2, #7
   12f6a:	e9c7 230a 	strd	r2, r3, [r7, #40]	; 0x28
   12f6e:	4642      	mov	r2, r8
   12f70:	f44f 71c8 	mov.w	r1, #400	; 0x190
   12f74:	f107 0034 	add.w	r0, r7, #52	; 0x34
   12f78:	f003 fe4e 	bl	16c18 <__fgets_unlocked>
   12f7c:	b308      	cbz	r0, 12fc2 <read_alias_file+0xda>
   12f7e:	210a      	movs	r1, #10
   12f80:	f107 0034 	add.w	r0, r7, #52	; 0x34
   12f84:	f00b fca4 	bl	1e8d0 <strchr>
   12f88:	4a9b      	ldr	r2, [pc, #620]	; (131f8 <read_alias_file+0x310>)
   12f8a:	f897 3034 	ldrb.w	r3, [r7, #52]	; 0x34
   12f8e:	f107 0434 	add.w	r4, r7, #52	; 0x34
   12f92:	447a      	add	r2, pc
   12f94:	6812      	ldr	r2, [r2, #0]
   12f96:	f85a 2002 	ldr.w	r2, [sl, r2]
   12f9a:	f832 1013 	ldrh.w	r1, [r2, r3, lsl #1]
   12f9e:	048d      	lsls	r5, r1, #18
   12fa0:	4606      	mov	r6, r0
   12fa2:	d505      	bpl.n	12fb0 <read_alias_file+0xc8>
   12fa4:	f814 3f01 	ldrb.w	r3, [r4, #1]!
   12fa8:	f832 1013 	ldrh.w	r1, [r2, r3, lsl #1]
   12fac:	0488      	lsls	r0, r1, #18
   12fae:	d4f9      	bmi.n	12fa4 <read_alias_file+0xbc>
   12fb0:	2b00      	cmp	r3, #0
   12fb2:	bf18      	it	ne
   12fb4:	2b23      	cmpne	r3, #35	; 0x23
   12fb6:	d129      	bne.n	1300c <read_alias_file+0x124>
   12fb8:	b1f6      	cbz	r6, 12ff8 <read_alias_file+0x110>
   12fba:	f8d8 3000 	ldr.w	r3, [r8]
   12fbe:	06d8      	lsls	r0, r3, #27
   12fc0:	d5d5      	bpl.n	12f6e <read_alias_file+0x86>
   12fc2:	4640      	mov	r0, r8
   12fc4:	f002 f99c 	bl	15300 <_IO_new_fclose>
   12fc8:	6afb      	ldr	r3, [r7, #44]	; 0x2c
   12fca:	2b00      	cmp	r3, #0
   12fcc:	f040 80bb 	bne.w	13146 <read_alias_file+0x25e>
   12fd0:	69fb      	ldr	r3, [r7, #28]
   12fd2:	f8d7 21c4 	ldr.w	r2, [r7, #452]	; 0x1c4
   12fd6:	6af8      	ldr	r0, [r7, #44]	; 0x2c
   12fd8:	681b      	ldr	r3, [r3, #0]
   12fda:	429a      	cmp	r2, r3
   12fdc:	f040 810a 	bne.w	131f4 <read_alias_file+0x30c>
   12fe0:	f507 77e6 	add.w	r7, r7, #460	; 0x1cc
   12fe4:	46bd      	mov	sp, r7
   12fe6:	e8bd 8ff0 	ldmia.w	sp!, {r4, r5, r6, r7, r8, r9, sl, fp, pc}
   12fea:	210a      	movs	r1, #10
   12fec:	f107 0034 	add.w	r0, r7, #52	; 0x34
   12ff0:	f00b fc6e 	bl	1e8d0 <strchr>
   12ff4:	2800      	cmp	r0, #0
   12ff6:	d1e0      	bne.n	12fba <read_alias_file+0xd2>
   12ff8:	4642      	mov	r2, r8
   12ffa:	f44f 71c8 	mov.w	r1, #400	; 0x190
   12ffe:	f107 0034 	add.w	r0, r7, #52	; 0x34
   13002:	f003 fe09 	bl	16c18 <__fgets_unlocked>
   13006:	2800      	cmp	r0, #0
   13008:	d1ef      	bne.n	12fea <read_alias_file+0x102>
   1300a:	e7d6      	b.n	12fba <read_alias_file+0xd2>
   1300c:	7861      	ldrb	r1, [r4, #1]
   1300e:	1c65      	adds	r5, r4, #1
   13010:	f832 3011 	ldrh.w	r3, [r2, r1, lsl #1]
   13014:	f403 5300 	and.w	r3, r3, #8192	; 0x2000
   13018:	b149      	cbz	r1, 1302e <read_alias_file+0x146>
   1301a:	2b00      	cmp	r3, #0
   1301c:	d165      	bne.n	130ea <read_alias_file+0x202>
   1301e:	f815 1f01 	ldrb.w	r1, [r5, #1]!
   13022:	f832 3011 	ldrh.w	r3, [r2, r1, lsl #1]
   13026:	f403 5300 	and.w	r3, r3, #8192	; 0x2000
   1302a:	2900      	cmp	r1, #0
   1302c:	d1f5      	bne.n	1301a <read_alias_file+0x132>
   1302e:	2b00      	cmp	r3, #0
   13030:	d0c2      	beq.n	12fb8 <read_alias_file+0xd0>
   13032:	f815 3f01 	ldrb.w	r3, [r5, #1]!
   13036:	f832 1013 	ldrh.w	r1, [r2, r3, lsl #1]
   1303a:	0489      	lsls	r1, r1, #18
   1303c:	d4f9      	bmi.n	13032 <read_alias_file+0x14a>
   1303e:	2b00      	cmp	r3, #0
   13040:	d0ba      	beq.n	12fb8 <read_alias_file+0xd0>
   13042:	786b      	ldrb	r3, [r5, #1]
   13044:	1c69      	adds	r1, r5, #1
   13046:	b91b      	cbnz	r3, 13050 <read_alias_file+0x168>
   13048:	e00d      	b.n	13066 <read_alias_file+0x17e>
   1304a:	f811 3f01 	ldrb.w	r3, [r1, #1]!
   1304e:	b153      	cbz	r3, 13066 <read_alias_file+0x17e>
   13050:	f832 0013 	ldrh.w	r0, [r2, r3, lsl #1]
   13054:	0480      	lsls	r0, r0, #18
   13056:	d5f8      	bpl.n	1304a <read_alias_file+0x162>
   13058:	2b0a      	cmp	r3, #10
   1305a:	bf02      	ittt	eq
   1305c:	704b      	strbeq	r3, [r1, #1]
   1305e:	2300      	moveq	r3, #0
   13060:	700b      	strbeq	r3, [r1, #0]
   13062:	f040 8082 	bne.w	1316a <read_alias_file+0x282>
   13066:	f8db 3000 	ldr.w	r3, [fp]
   1306a:	f8db 1004 	ldr.w	r1, [fp, #4]
   1306e:	428b      	cmp	r3, r1
   13070:	627b      	str	r3, [r7, #36]	; 0x24
   13072:	f080 8084 	bcs.w	1317e <read_alias_file+0x296>
   13076:	4620      	mov	r0, r4
   13078:	f00b ffa2 	bl	1efc0 <strlen>
   1307c:	1c42      	adds	r2, r0, #1
   1307e:	4628      	mov	r0, r5
   13080:	623a      	str	r2, [r7, #32]
   13082:	f00b ff9d 	bl	1efc0 <strlen>
   13086:	f8db 1008 	ldr.w	r1, [fp, #8]
   1308a:	6a3a      	ldr	r2, [r7, #32]
   1308c:	f8db c00c 	ldr.w	ip, [fp, #12]
   13090:	6179      	str	r1, [r7, #20]
   13092:	4411      	add	r1, r2
   13094:	6abb      	ldr	r3, [r7, #40]	; 0x28
   13096:	6139      	str	r1, [r7, #16]
   13098:	f8d3 9004 	ldr.w	r9, [r3, #4]
   1309c:	3001      	adds	r0, #1
   1309e:	6238      	str	r0, [r7, #32]
   130a0:	4401      	add	r1, r0
   130a2:	60f9      	str	r1, [r7, #12]
   130a4:	4561      	cmp	r1, ip
   130a6:	d92c      	bls.n	13102 <read_alias_file+0x21a>
   130a8:	6a3b      	ldr	r3, [r7, #32]
   130aa:	4648      	mov	r0, r9
   130ac:	61ba      	str	r2, [r7, #24]
   130ae:	18d1      	adds	r1, r2, r3
   130b0:	4663      	mov	r3, ip
   130b2:	f5b1 6f80 	cmp.w	r1, #1024	; 0x400
   130b6:	bf2c      	ite	cs
   130b8:	185b      	addcs	r3, r3, r1
   130ba:	f503 6380 	addcc.w	r3, r3, #1024	; 0x400
   130be:	60bb      	str	r3, [r7, #8]
   130c0:	4619      	mov	r1, r3
   130c2:	f00a fe13 	bl	1dcec <__libc_realloc>
   130c6:	2800      	cmp	r0, #0
   130c8:	f43f af7b 	beq.w	12fc2 <read_alias_file+0xda>
   130cc:	6abb      	ldr	r3, [r7, #40]	; 0x28
   130ce:	4548      	cmp	r0, r9
   130d0:	6a79      	ldr	r1, [r7, #36]	; 0x24
   130d2:	69ba      	ldr	r2, [r7, #24]
   130d4:	681b      	ldr	r3, [r3, #0]
   130d6:	d169      	bne.n	131ac <read_alias_file+0x2c4>
   130d8:	00c9      	lsls	r1, r1, #3
   130da:	61b9      	str	r1, [r7, #24]
   130dc:	6ab9      	ldr	r1, [r7, #40]	; 0x28
   130de:	4681      	mov	r9, r0
   130e0:	6048      	str	r0, [r1, #4]
   130e2:	68b9      	ldr	r1, [r7, #8]
   130e4:	f8cb 100c 	str.w	r1, [fp, #12]
   130e8:	e00f      	b.n	1310a <read_alias_file+0x222>
   130ea:	786b      	ldrb	r3, [r5, #1]
   130ec:	2100      	movs	r1, #0
   130ee:	7029      	strb	r1, [r5, #0]
   130f0:	3501      	adds	r5, #1
   130f2:	f832 1013 	ldrh.w	r1, [r2, r3, lsl #1]
   130f6:	0489      	lsls	r1, r1, #18
   130f8:	d49b      	bmi.n	13032 <read_alias_file+0x14a>
   130fa:	2b00      	cmp	r3, #0
   130fc:	f43f af5c 	beq.w	12fb8 <read_alias_file+0xd0>
   13100:	e79f      	b.n	13042 <read_alias_file+0x15a>
   13102:	6a79      	ldr	r1, [r7, #36]	; 0x24
   13104:	681b      	ldr	r3, [r3, #0]
   13106:	00c9      	lsls	r1, r1, #3
   13108:	61b9      	str	r1, [r7, #24]
   1310a:	60bb      	str	r3, [r7, #8]
   1310c:	4621      	mov	r1, r4
   1310e:	697b      	ldr	r3, [r7, #20]
   13110:	444b      	add	r3, r9
   13112:	4618      	mov	r0, r3
   13114:	6afb      	ldr	r3, [r7, #44]	; 0x2c
   13116:	3301      	adds	r3, #1
   13118:	62fb      	str	r3, [r7, #44]	; 0x2c
   1311a:	f7fd e82e 	blx	10178 <__rel_iplt_end+0x10>
   1311e:	68bb      	ldr	r3, [r7, #8]
   13120:	4629      	mov	r1, r5
   13122:	69bd      	ldr	r5, [r7, #24]
   13124:	6a3a      	ldr	r2, [r7, #32]
   13126:	195c      	adds	r4, r3, r5
   13128:	5158      	str	r0, [r3, r5]
   1312a:	693b      	ldr	r3, [r7, #16]
   1312c:	444b      	add	r3, r9
   1312e:	4618      	mov	r0, r3
   13130:	f7fd e822 	blx	10178 <__rel_iplt_end+0x10>
   13134:	68fa      	ldr	r2, [r7, #12]
   13136:	6a7b      	ldr	r3, [r7, #36]	; 0x24
   13138:	f8cb 2008 	str.w	r2, [fp, #8]
   1313c:	3301      	adds	r3, #1
   1313e:	f8cb 3000 	str.w	r3, [fp]
   13142:	6060      	str	r0, [r4, #4]
   13144:	e738      	b.n	12fb8 <read_alias_file+0xd0>
   13146:	f249 4138 	movw	r1, #37944	; 0x9438
   1314a:	f64f 4054 	movw	r0, #64596	; 0xfc54
   1314e:	f2c0 0107 	movt	r1, #7
   13152:	f2c0 0007 	movt	r0, #7
   13156:	f642 63d9 	movw	r3, #11993	; 0x2ed9
   1315a:	2208      	movs	r2, #8
   1315c:	6809      	ldr	r1, [r1, #0]
   1315e:	f2c0 0301 	movt	r3, #1
   13162:	6800      	ldr	r0, [r0, #0]
   13164:	f001 fa32 	bl	145cc <qsort>
   13168:	e732      	b.n	12fd0 <read_alias_file+0xe8>
   1316a:	2300      	movs	r3, #0
   1316c:	700b      	strb	r3, [r1, #0]
   1316e:	f8db 3000 	ldr.w	r3, [fp]
   13172:	f8db 1004 	ldr.w	r1, [fp, #4]
   13176:	428b      	cmp	r3, r1
   13178:	627b      	str	r3, [r7, #36]	; 0x24
   1317a:	f4ff af7c 	bcc.w	13076 <read_alias_file+0x18e>
   1317e:	b989      	cbnz	r1, 131a4 <read_alias_file+0x2bc>
   13180:	f44f 7148 	mov.w	r1, #800	; 0x320
   13184:	f04f 0964 	mov.w	r9, #100	; 0x64
   13188:	6abb      	ldr	r3, [r7, #40]	; 0x28
   1318a:	6818      	ldr	r0, [r3, #0]
   1318c:	f00a fdae 	bl	1dcec <__libc_realloc>
   13190:	2800      	cmp	r0, #0
   13192:	f43f af16 	beq.w	12fc2 <read_alias_file+0xda>
   13196:	6abb      	ldr	r3, [r7, #40]	; 0x28
   13198:	f8cb 9004 	str.w	r9, [fp, #4]
   1319c:	6018      	str	r0, [r3, #0]
   1319e:	e76a      	b.n	13076 <read_alias_file+0x18e>
   131a0:	62f8      	str	r0, [r7, #44]	; 0x2c
   131a2:	e715      	b.n	12fd0 <read_alias_file+0xe8>
   131a4:	ea4f 0941 	mov.w	r9, r1, lsl #1
   131a8:	0109      	lsls	r1, r1, #4
   131aa:	e7ed      	b.n	13188 <read_alias_file+0x2a0>
   131ac:	b1d9      	cbz	r1, 131e6 <read_alias_file+0x2fe>
   131ae:	6a79      	ldr	r1, [r7, #36]	; 0x24
   131b0:	eba0 0909 	sub.w	r9, r0, r9
   131b4:	f103 0e04 	add.w	lr, r3, #4
   131b8:	469c      	mov	ip, r3
   131ba:	00c9      	lsls	r1, r1, #3
   131bc:	61b9      	str	r1, [r7, #24]
   131be:	1859      	adds	r1, r3, r1
   131c0:	6079      	str	r1, [r7, #4]
   131c2:	f85e 1c04 	ldr.w	r1, [lr, #-4]
   131c6:	f10c 0c08 	add.w	ip, ip, #8
   131ca:	f10e 0e08 	add.w	lr, lr, #8
   131ce:	4449      	add	r1, r9
   131d0:	f84e 1c0c 	str.w	r1, [lr, #-12]
   131d4:	f85c 1c04 	ldr.w	r1, [ip, #-4]
   131d8:	4449      	add	r1, r9
   131da:	f84c 1c04 	str.w	r1, [ip, #-4]
   131de:	6879      	ldr	r1, [r7, #4]
   131e0:	4561      	cmp	r1, ip
   131e2:	d1ee      	bne.n	131c2 <read_alias_file+0x2da>
   131e4:	e77a      	b.n	130dc <read_alias_file+0x1f4>
   131e6:	61b9      	str	r1, [r7, #24]
   131e8:	e778      	b.n	130dc <read_alias_file+0x1f4>
   131ea:	f002 f889 	bl	15300 <_IO_new_fclose>
   131ee:	2300      	movs	r3, #0
   131f0:	62fb      	str	r3, [r7, #44]	; 0x2c
   131f2:	e6ed      	b.n	12fd0 <read_alias_file+0xe8>
   131f4:	f010 f87c 	bl	232f0 <__stack_chk_fail>
   131f8:	000650e6 	.word	0x000650e6

000131fc <_nl_expand_alias>:
   131fc:	4946      	ldr	r1, [pc, #280]	; (13318 <_nl_expand_alias+0x11c>)
   131fe:	e92d 4ff8 	stmdb	sp!, {r3, r4, r5, r6, r7, r8, r9, sl, fp, lr}
   13202:	4605      	mov	r5, r0
   13204:	2301      	movs	r3, #1
   13206:	e851 2f00 	ldrex	r2, [r1]
   1320a:	2a00      	cmp	r2, #0
   1320c:	d105      	bne.n	1321a <_nl_expand_alias+0x1e>
   1320e:	e841 3000 	strex	r0, r3, [r1]
   13212:	2800      	cmp	r0, #0
   13214:	d1f7      	bne.n	13206 <_nl_expand_alias+0xa>
   13216:	f3bf 8f5b 	dmb	ish
   1321a:	d16c      	bne.n	132f6 <_nl_expand_alias+0xfa>
   1321c:	f249 4438 	movw	r4, #37944	; 0x9438
   13220:	f2c0 0407 	movt	r4, #7
   13224:	6963      	ldr	r3, [r4, #20]
   13226:	2b00      	cmp	r3, #0
   13228:	d05f      	beq.n	132ea <_nl_expand_alias+0xee>
   1322a:	f8d4 8000 	ldr.w	r8, [r4]
   1322e:	f1b8 0f00 	cmp.w	r8, #0
   13232:	d137      	bne.n	132a4 <_nl_expand_alias+0xa8>
   13234:	6960      	ldr	r0, [r4, #20]
   13236:	2200      	movs	r2, #0
   13238:	7803      	ldrb	r3, [r0, #0]
   1323a:	b1a3      	cbz	r3, 13266 <_nl_expand_alias+0x6a>
   1323c:	2b3a      	cmp	r3, #58	; 0x3a
   1323e:	d104      	bne.n	1324a <_nl_expand_alias+0x4e>
   13240:	f810 3f01 	ldrb.w	r3, [r0, #1]!
   13244:	2b3a      	cmp	r3, #58	; 0x3a
   13246:	d0fb      	beq.n	13240 <_nl_expand_alias+0x44>
   13248:	b1fb      	cbz	r3, 1328a <_nl_expand_alias+0x8e>
   1324a:	4602      	mov	r2, r0
   1324c:	f812 3f01 	ldrb.w	r3, [r2, #1]!
   13250:	2b00      	cmp	r3, #0
   13252:	bf18      	it	ne
   13254:	2b3a      	cmpne	r3, #58	; 0x3a
   13256:	d1f9      	bne.n	1324c <_nl_expand_alias+0x50>
   13258:	4282      	cmp	r2, r0
   1325a:	d818      	bhi.n	1328e <_nl_expand_alias+0x92>
   1325c:	4610      	mov	r0, r2
   1325e:	2201      	movs	r2, #1
   13260:	7803      	ldrb	r3, [r0, #0]
   13262:	2b00      	cmp	r3, #0
   13264:	d1ea      	bne.n	1323c <_nl_expand_alias+0x40>
   13266:	2a00      	cmp	r2, #0
   13268:	d153      	bne.n	13312 <_nl_expand_alias+0x116>
   1326a:	2400      	movs	r4, #0
   1326c:	492a      	ldr	r1, [pc, #168]	; (13318 <_nl_expand_alias+0x11c>)
   1326e:	2300      	movs	r3, #0
   13270:	f3bf 8f5b 	dmb	ish
   13274:	e851 2f00 	ldrex	r2, [r1]
   13278:	e841 3000 	strex	r0, r3, [r1]
   1327c:	2800      	cmp	r0, #0
   1327e:	d1f9      	bne.n	13274 <_nl_expand_alias+0x78>
   13280:	2a01      	cmp	r2, #1
   13282:	dc3c      	bgt.n	132fe <_nl_expand_alias+0x102>
   13284:	4620      	mov	r0, r4
   13286:	e8bd 8ff8 	ldmia.w	sp!, {r3, r4, r5, r6, r7, r8, r9, sl, fp, pc}
   1328a:	4602      	mov	r2, r0
   1328c:	e7e6      	b.n	1325c <_nl_expand_alias+0x60>
   1328e:	1a11      	subs	r1, r2, r0
   13290:	6162      	str	r2, [r4, #20]
   13292:	f7ff fe29 	bl	12ee8 <read_alias_file>
   13296:	2800      	cmp	r0, #0
   13298:	d0cc      	beq.n	13234 <_nl_expand_alias+0x38>
   1329a:	f8d4 8000 	ldr.w	r8, [r4]
   1329e:	f1b8 0f00 	cmp.w	r8, #0
   132a2:	d0c7      	beq.n	13234 <_nl_expand_alias+0x38>
   132a4:	f64f 4354 	movw	r3, #64596	; 0xfc54
   132a8:	f2c0 0307 	movt	r3, #7
   132ac:	f640 3af4 	movw	sl, #3060	; 0xbf4
   132b0:	f04f 0900 	mov.w	r9, #0
   132b4:	f2c0 0a06 	movt	sl, #6
   132b8:	681e      	ldr	r6, [r3, #0]
   132ba:	e004      	b.n	132c6 <_nl_expand_alias+0xca>
   132bc:	d012      	beq.n	132e4 <_nl_expand_alias+0xe8>
   132be:	f107 0901 	add.w	r9, r7, #1
   132c2:	45c8      	cmp	r8, r9
   132c4:	d9b6      	bls.n	13234 <_nl_expand_alias+0x38>
   132c6:	eb09 0708 	add.w	r7, r9, r8
   132ca:	4652      	mov	r2, sl
   132cc:	4628      	mov	r0, r5
   132ce:	087f      	lsrs	r7, r7, #1
   132d0:	f856 1037 	ldr.w	r1, [r6, r7, lsl #3]
   132d4:	eb06 0bc7 	add.w	fp, r6, r7, lsl #3
   132d8:	f00c fdce 	bl	1fe78 <__strcasecmp_l>
   132dc:	2800      	cmp	r0, #0
   132de:	daed      	bge.n	132bc <_nl_expand_alias+0xc0>
   132e0:	46b8      	mov	r8, r7
   132e2:	e7ee      	b.n	132c2 <_nl_expand_alias+0xc6>
   132e4:	f8db 4004 	ldr.w	r4, [fp, #4]
   132e8:	e7c0      	b.n	1326c <_nl_expand_alias+0x70>
   132ea:	f641 5388 	movw	r3, #7560	; 0x1d88
   132ee:	f2c0 0305 	movt	r3, #5
   132f2:	6163      	str	r3, [r4, #20]
   132f4:	e799      	b.n	1322a <_nl_expand_alias+0x2e>
   132f6:	4608      	mov	r0, r1
   132f8:	f00f ff60 	bl	231bc <__lll_lock_wait_private>
   132fc:	e78e      	b.n	1321c <_nl_expand_alias+0x20>
   132fe:	4608      	mov	r0, r1
   13300:	2201      	movs	r2, #1
   13302:	2181      	movs	r1, #129	; 0x81
   13304:	f04f 0cf0 	mov.w	ip, #240	; 0xf0
   13308:	f7fd fdea 	bl	10ee0 <__libc_do_syscall>
   1330c:	4620      	mov	r0, r4
   1330e:	e8bd 8ff8 	ldmia.w	sp!, {r3, r4, r5, r6, r7, r8, r9, sl, fp, pc}
   13312:	6160      	str	r0, [r4, #20]
   13314:	e7a9      	b.n	1326a <_nl_expand_alias+0x6e>
   13316:	bf00      	nop
   13318:	00079448 	.word	0x00079448

0001331c <_nl_make_l10nflist>:
   1331c:	e92d 4ff0 	stmdb	sp!, {r4, r5, r6, r7, r8, r9, sl, fp, lr}
   13320:	b08f      	sub	sp, #60	; 0x3c
   13322:	461d      	mov	r5, r3
   13324:	4616      	mov	r6, r2
   13326:	e9cd 1009 	strd	r1, r0, [sp, #36]	; 0x24
   1332a:	f102 0902 	add.w	r9, r2, #2
   1332e:	9818      	ldr	r0, [sp, #96]	; 0x60
   13330:	f00b fe46 	bl	1efc0 <strlen>
   13334:	f015 0804 	ands.w	r8, r5, #4
   13338:	bf08      	it	eq
   1333a:	46c2      	moveq	sl, r8
   1333c:	4607      	mov	r7, r0
   1333e:	d004      	beq.n	1334a <_nl_make_l10nflist+0x2e>
   13340:	9819      	ldr	r0, [sp, #100]	; 0x64
   13342:	f00b fe3d 	bl	1efc0 <strlen>
   13346:	f100 0a01 	add.w	sl, r0, #1
   1334a:	f015 0302 	ands.w	r3, r5, #2
   1334e:	44b9      	add	r9, r7
   13350:	930b      	str	r3, [sp, #44]	; 0x2c
   13352:	bf08      	it	eq
   13354:	9f0b      	ldreq	r7, [sp, #44]	; 0x2c
   13356:	d003      	beq.n	13360 <_nl_make_l10nflist+0x44>
   13358:	981a      	ldr	r0, [sp, #104]	; 0x68
   1335a:	f00b fe31 	bl	1efc0 <strlen>
   1335e:	1c47      	adds	r7, r0, #1
   13360:	f015 0301 	ands.w	r3, r5, #1
   13364:	44d1      	add	r9, sl
   13366:	930c      	str	r3, [sp, #48]	; 0x30
   13368:	bf08      	it	eq
   1336a:	9c0c      	ldreq	r4, [sp, #48]	; 0x30
   1336c:	d003      	beq.n	13376 <_nl_make_l10nflist+0x5a>
   1336e:	981b      	ldr	r0, [sp, #108]	; 0x6c
   13370:	f00b fe26 	bl	1efc0 <strlen>
   13374:	1c44      	adds	r4, r0, #1
   13376:	f015 0308 	ands.w	r3, r5, #8
   1337a:	444f      	add	r7, r9
   1337c:	930d      	str	r3, [sp, #52]	; 0x34
   1337e:	bf08      	it	eq
   13380:	f8dd a034 	ldreq.w	sl, [sp, #52]	; 0x34
   13384:	d004      	beq.n	13390 <_nl_make_l10nflist+0x74>
   13386:	981c      	ldr	r0, [sp, #112]	; 0x70
   13388:	f00b fe1a 	bl	1efc0 <strlen>
   1338c:	f100 0a01 	add.w	sl, r0, #1
   13390:	981d      	ldr	r0, [sp, #116]	; 0x74
   13392:	443c      	add	r4, r7
   13394:	f00b fe14 	bl	1efc0 <strlen>
   13398:	4681      	mov	r9, r0
   1339a:	eb04 000a 	add.w	r0, r4, sl
   1339e:	4448      	add	r0, r9
   133a0:	f00a f9fc 	bl	1d79c <__libc_malloc>
   133a4:	4607      	mov	r7, r0
   133a6:	2800      	cmp	r0, #0
   133a8:	f000 8181 	beq.w	136ae <_nl_make_l10nflist+0x392>
   133ac:	4632      	mov	r2, r6
   133ae:	9909      	ldr	r1, [sp, #36]	; 0x24
   133b0:	f7fc eee2 	blx	10178 <__rel_iplt_end+0x10>
   133b4:	b17e      	cbz	r6, 133d6 <_nl_make_l10nflist+0xba>
   133b6:	46b3      	mov	fp, r6
   133b8:	46ba      	mov	sl, r7
   133ba:	243a      	movs	r4, #58	; 0x3a
   133bc:	4650      	mov	r0, sl
   133be:	f00b fdff 	bl	1efc0 <strlen>
   133c2:	43c3      	mvns	r3, r0
   133c4:	eb1b 0b03 	adds.w	fp, fp, r3
   133c8:	4482      	add	sl, r0
   133ca:	d004      	beq.n	133d6 <_nl_make_l10nflist+0xba>
   133cc:	f88a 4000 	strb.w	r4, [sl]
   133d0:	f10a 0a01 	add.w	sl, sl, #1
   133d4:	e7f2      	b.n	133bc <_nl_make_l10nflist+0xa0>
   133d6:	19b8      	adds	r0, r7, r6
   133d8:	232f      	movs	r3, #47	; 0x2f
   133da:	9918      	ldr	r1, [sp, #96]	; 0x60
   133dc:	f800 3c01 	strb.w	r3, [r0, #-1]
   133e0:	f00b fc4e 	bl	1ec80 <__stpcpy>
   133e4:	4603      	mov	r3, r0
   133e6:	f1b8 0f00 	cmp.w	r8, #0
   133ea:	f040 8123 	bne.w	13634 <_nl_make_l10nflist+0x318>
   133ee:	9a0b      	ldr	r2, [sp, #44]	; 0x2c
   133f0:	1c58      	adds	r0, r3, #1
   133f2:	2a00      	cmp	r2, #0
   133f4:	f040 8116 	bne.w	13624 <_nl_make_l10nflist+0x308>
   133f8:	9a0c      	ldr	r2, [sp, #48]	; 0x30
   133fa:	2a00      	cmp	r2, #0
   133fc:	f040 810a 	bne.w	13614 <_nl_make_l10nflist+0x2f8>
   13400:	9a0d      	ldr	r2, [sp, #52]	; 0x34
   13402:	2a00      	cmp	r2, #0
   13404:	f040 80fe 	bne.w	13604 <_nl_make_l10nflist+0x2e8>
   13408:	212f      	movs	r1, #47	; 0x2f
   1340a:	f109 0201 	add.w	r2, r9, #1
   1340e:	7019      	strb	r1, [r3, #0]
   13410:	991d      	ldr	r1, [sp, #116]	; 0x74
   13412:	f7fc eeb2 	blx	10178 <__rel_iplt_end+0x10>
   13416:	9b0a      	ldr	r3, [sp, #40]	; 0x28
   13418:	681b      	ldr	r3, [r3, #0]
   1341a:	930b      	str	r3, [sp, #44]	; 0x2c
   1341c:	2b00      	cmp	r3, #0
   1341e:	f000 8148 	beq.w	136b2 <_nl_make_l10nflist+0x396>
   13422:	461c      	mov	r4, r3
   13424:	f04f 0900 	mov.w	r9, #0
   13428:	6823      	ldr	r3, [r4, #0]
   1342a:	4639      	mov	r1, r7
   1342c:	4618      	mov	r0, r3
   1342e:	b133      	cbz	r3, 1343e <_nl_make_l10nflist+0x122>
   13430:	f00b faae 	bl	1e990 <strcmp>
   13434:	2800      	cmp	r0, #0
   13436:	f000 8107 	beq.w	13648 <_nl_make_l10nflist+0x32c>
   1343a:	db03      	blt.n	13444 <_nl_make_l10nflist+0x128>
   1343c:	46a1      	mov	r9, r4
   1343e:	68e4      	ldr	r4, [r4, #12]
   13440:	2c00      	cmp	r4, #0
   13442:	d1f1      	bne.n	13428 <_nl_make_l10nflist+0x10c>
   13444:	9b1e      	ldr	r3, [sp, #120]	; 0x78
   13446:	2b00      	cmp	r3, #0
   13448:	f000 80fd 	beq.w	13646 <_nl_make_l10nflist+0x32a>
   1344c:	f24d 5355 	movw	r3, #54613	; 0xd555
   13450:	f6cf 73ff 	movt	r3, #65535	; 0xffff
   13454:	ea03 0465 	and.w	r4, r3, r5, asr #1
   13458:	f245 5255 	movw	r2, #21845	; 0x5555
   1345c:	402a      	ands	r2, r5
   1345e:	f24f 3333 	movw	r3, #62259	; 0xf333
   13462:	4414      	add	r4, r2
   13464:	f6cf 73ff 	movt	r3, #65535	; 0xffff
   13468:	f243 3233 	movw	r2, #13107	; 0x3333
   1346c:	4022      	ands	r2, r4
   1346e:	ea03 03a4 	and.w	r3, r3, r4, asr #2
   13472:	f640 710f 	movw	r1, #3855	; 0xf0f
   13476:	189c      	adds	r4, r3, r2
   13478:	eb04 1424 	add.w	r4, r4, r4, asr #4
   1347c:	400c      	ands	r4, r1
   1347e:	eb04 2414 	add.w	r4, r4, r4, lsr #8
   13482:	b2e4      	uxtb	r4, r4
   13484:	2e00      	cmp	r6, #0
   13486:	f000 810a 	beq.w	1369e <_nl_make_l10nflist+0x382>
   1348a:	f8dd a024 	ldr.w	sl, [sp, #36]	; 0x24
   1348e:	46b0      	mov	r8, r6
   13490:	f04f 0b00 	mov.w	fp, #0
   13494:	4650      	mov	r0, sl
   13496:	f10b 0b01 	add.w	fp, fp, #1
   1349a:	f00b fd91 	bl	1efc0 <strlen>
   1349e:	1c43      	adds	r3, r0, #1
   134a0:	43c0      	mvns	r0, r0
   134a2:	eb18 0800 	adds.w	r8, r8, r0
   134a6:	449a      	add	sl, r3
   134a8:	d1f4      	bne.n	13494 <_nl_make_l10nflist+0x178>
   134aa:	ea4f 004b 	mov.w	r0, fp, lsl #1
   134ae:	40a0      	lsls	r0, r4
   134b0:	3005      	adds	r0, #5
   134b2:	0080      	lsls	r0, r0, #2
   134b4:	f00a f972 	bl	1d79c <__libc_malloc>
   134b8:	4604      	mov	r4, r0
   134ba:	2800      	cmp	r0, #0
   134bc:	f000 80fc 	beq.w	136b8 <_nl_make_l10nflist+0x39c>
   134c0:	f8dd b024 	ldr.w	fp, [sp, #36]	; 0x24
   134c4:	46b2      	mov	sl, r6
   134c6:	6007      	str	r7, [r0, #0]
   134c8:	4658      	mov	r0, fp
   134ca:	f108 0801 	add.w	r8, r8, #1
   134ce:	f00b fd77 	bl	1efc0 <strlen>
   134d2:	1c43      	adds	r3, r0, #1
   134d4:	43c0      	mvns	r0, r0
   134d6:	eb1a 0a00 	adds.w	sl, sl, r0
   134da:	449b      	add	fp, r3
   134dc:	d1f4      	bne.n	134c8 <_nl_make_l10nflist+0x1ac>
   134de:	f1b8 0f01 	cmp.w	r8, #1
   134e2:	bf05      	ittet	eq
   134e4:	f005 0303 	andeq.w	r3, r5, #3
   134e8:	3b03      	subeq	r3, #3
   134ea:	2301      	movne	r3, #1
   134ec:	fab3 f383 	clzeq	r3, r3
   134f0:	bf08      	it	eq
   134f2:	095b      	lsreq	r3, r3, #5
   134f4:	6063      	str	r3, [r4, #4]
   134f6:	2300      	movs	r3, #0
   134f8:	60a3      	str	r3, [r4, #8]
   134fa:	f1b9 0f00 	cmp.w	r9, #0
   134fe:	f000 80aa 	beq.w	13656 <_nl_make_l10nflist+0x33a>
   13502:	f8d9 300c 	ldr.w	r3, [r9, #12]
   13506:	60e3      	str	r3, [r4, #12]
   13508:	f8c9 400c 	str.w	r4, [r9, #12]
   1350c:	b1a6      	cbz	r6, 13538 <_nl_make_l10nflist+0x21c>
   1350e:	9f09      	ldr	r7, [sp, #36]	; 0x24
   13510:	46b0      	mov	r8, r6
   13512:	f04f 0900 	mov.w	r9, #0
   13516:	4638      	mov	r0, r7
   13518:	f109 0901 	add.w	r9, r9, #1
   1351c:	f00b fd50 	bl	1efc0 <strlen>
   13520:	1c43      	adds	r3, r0, #1
   13522:	43c0      	mvns	r0, r0
   13524:	eb18 0800 	adds.w	r8, r8, r0
   13528:	441f      	add	r7, r3
   1352a:	d1f4      	bne.n	13516 <_nl_make_l10nflist+0x1fa>
   1352c:	f1b9 0f01 	cmp.w	r9, #1
   13530:	bf08      	it	eq
   13532:	f105 37ff 	addeq.w	r7, r5, #4294967295	; 0xffffffff
   13536:	d000      	beq.n	1353a <_nl_make_l10nflist+0x21e>
   13538:	462f      	mov	r7, r5
   1353a:	2f00      	cmp	r7, #0
   1353c:	f2c0 8090 	blt.w	13660 <_nl_make_l10nflist+0x344>
   13540:	9b09      	ldr	r3, [sp, #36]	; 0x24
   13542:	ea6f 0a05 	mvn.w	sl, r5
   13546:	f04f 0900 	mov.w	r9, #0
   1354a:	960b      	str	r6, [sp, #44]	; 0x2c
   1354c:	4433      	add	r3, r6
   1354e:	469b      	mov	fp, r3
   13550:	ea17 060a 	ands.w	r6, r7, sl
   13554:	bf04      	itt	eq
   13556:	eb04 0889 	addeq.w	r8, r4, r9, lsl #2
   1355a:	f108 080c 	addeq.w	r8, r8, #12
   1355e:	d023      	beq.n	135a8 <_nl_make_l10nflist+0x28c>
   13560:	f117 37ff 	adds.w	r7, r7, #4294967295	; 0xffffffff
   13564:	d2f4      	bcs.n	13550 <_nl_make_l10nflist+0x234>
   13566:	f641 51dc 	movw	r1, #7644	; 0x1ddc
   1356a:	220b      	movs	r2, #11
   1356c:	f2c0 0105 	movt	r1, #5
   13570:	981d      	ldr	r0, [sp, #116]	; 0x74
   13572:	f00b fd93 	bl	1f09c <strncmp>
   13576:	b970      	cbnz	r0, 13596 <_nl_make_l10nflist+0x27a>
   13578:	2d00      	cmp	r5, #0
   1357a:	db0c      	blt.n	13596 <_nl_make_l10nflist+0x27a>
   1357c:	f641 57e8 	movw	r7, #7656	; 0x1de8
   13580:	f2c0 0705 	movt	r7, #5
   13584:	43ee      	mvns	r6, r5
   13586:	f04f 0801 	mov.w	r8, #1
   1358a:	46bb      	mov	fp, r7
   1358c:	4235      	tst	r5, r6
   1358e:	d06a      	beq.n	13666 <_nl_make_l10nflist+0x34a>
   13590:	f115 35ff 	adds.w	r5, r5, #4294967295	; 0xffffffff
   13594:	d2fa      	bcs.n	1358c <_nl_make_l10nflist+0x270>
   13596:	f109 0904 	add.w	r9, r9, #4
   1359a:	2300      	movs	r3, #0
   1359c:	f844 3029 	str.w	r3, [r4, r9, lsl #2]
   135a0:	4620      	mov	r0, r4
   135a2:	b00f      	add	sp, #60	; 0x3c
   135a4:	e8bd 8ff0 	ldmia.w	sp!, {r4, r5, r6, r7, r8, r9, sl, fp, pc}
   135a8:	b33e      	cbz	r6, 135fa <_nl_make_l10nflist+0x2de>
   135aa:	455e      	cmp	r6, fp
   135ac:	4630      	mov	r0, r6
   135ae:	d2d7      	bcs.n	13560 <_nl_make_l10nflist+0x244>
   135b0:	f00b fd06 	bl	1efc0 <strlen>
   135b4:	3001      	adds	r0, #1
   135b6:	4406      	add	r6, r0
   135b8:	2e00      	cmp	r6, #0
   135ba:	bf18      	it	ne
   135bc:	455e      	cmpne	r6, fp
   135be:	d2cf      	bcs.n	13560 <_nl_make_l10nflist+0x244>
   135c0:	4630      	mov	r0, r6
   135c2:	f109 0901 	add.w	r9, r9, #1
   135c6:	f00b fcfb 	bl	1efc0 <strlen>
   135ca:	9a1c      	ldr	r2, [sp, #112]	; 0x70
   135cc:	2301      	movs	r3, #1
   135ce:	9306      	str	r3, [sp, #24]
   135d0:	9b1d      	ldr	r3, [sp, #116]	; 0x74
   135d2:	4631      	mov	r1, r6
   135d4:	9204      	str	r2, [sp, #16]
   135d6:	9a1b      	ldr	r2, [sp, #108]	; 0x6c
   135d8:	9305      	str	r3, [sp, #20]
   135da:	463b      	mov	r3, r7
   135dc:	9203      	str	r2, [sp, #12]
   135de:	9a1a      	ldr	r2, [sp, #104]	; 0x68
   135e0:	9202      	str	r2, [sp, #8]
   135e2:	9a19      	ldr	r2, [sp, #100]	; 0x64
   135e4:	9201      	str	r2, [sp, #4]
   135e6:	9a18      	ldr	r2, [sp, #96]	; 0x60
   135e8:	9200      	str	r2, [sp, #0]
   135ea:	1c42      	adds	r2, r0, #1
   135ec:	980a      	ldr	r0, [sp, #40]	; 0x28
   135ee:	f7ff fe95 	bl	1331c <_nl_make_l10nflist>
   135f2:	f848 0f04 	str.w	r0, [r8, #4]!
   135f6:	2e00      	cmp	r6, #0
   135f8:	d1d7      	bne.n	135aa <_nl_make_l10nflist+0x28e>
   135fa:	9b0b      	ldr	r3, [sp, #44]	; 0x2c
   135fc:	9e09      	ldr	r6, [sp, #36]	; 0x24
   135fe:	2b00      	cmp	r3, #0
   13600:	d1de      	bne.n	135c0 <_nl_make_l10nflist+0x2a4>
   13602:	e7ad      	b.n	13560 <_nl_make_l10nflist+0x244>
   13604:	2240      	movs	r2, #64	; 0x40
   13606:	991c      	ldr	r1, [sp, #112]	; 0x70
   13608:	701a      	strb	r2, [r3, #0]
   1360a:	f00b fb39 	bl	1ec80 <__stpcpy>
   1360e:	4603      	mov	r3, r0
   13610:	3001      	adds	r0, #1
   13612:	e6f9      	b.n	13408 <_nl_make_l10nflist+0xec>
   13614:	222e      	movs	r2, #46	; 0x2e
   13616:	991b      	ldr	r1, [sp, #108]	; 0x6c
   13618:	701a      	strb	r2, [r3, #0]
   1361a:	f00b fb31 	bl	1ec80 <__stpcpy>
   1361e:	4603      	mov	r3, r0
   13620:	3001      	adds	r0, #1
   13622:	e6ed      	b.n	13400 <_nl_make_l10nflist+0xe4>
   13624:	222e      	movs	r2, #46	; 0x2e
   13626:	991a      	ldr	r1, [sp, #104]	; 0x68
   13628:	701a      	strb	r2, [r3, #0]
   1362a:	f00b fb29 	bl	1ec80 <__stpcpy>
   1362e:	4603      	mov	r3, r0
   13630:	3001      	adds	r0, #1
   13632:	e6e1      	b.n	133f8 <_nl_make_l10nflist+0xdc>
   13634:	225f      	movs	r2, #95	; 0x5f
   13636:	3001      	adds	r0, #1
   13638:	f800 2c01 	strb.w	r2, [r0, #-1]
   1363c:	9919      	ldr	r1, [sp, #100]	; 0x64
   1363e:	f00b fb1f 	bl	1ec80 <__stpcpy>
   13642:	4603      	mov	r3, r0
   13644:	e6d3      	b.n	133ee <_nl_make_l10nflist+0xd2>
   13646:	9c1e      	ldr	r4, [sp, #120]	; 0x78
   13648:	4638      	mov	r0, r7
   1364a:	f00a fafd 	bl	1dc48 <__free>
   1364e:	4620      	mov	r0, r4
   13650:	b00f      	add	sp, #60	; 0x3c
   13652:	e8bd 8ff0 	ldmia.w	sp!, {r4, r5, r6, r7, r8, r9, sl, fp, pc}
   13656:	9b0b      	ldr	r3, [sp, #44]	; 0x2c
   13658:	60e3      	str	r3, [r4, #12]
   1365a:	9b0a      	ldr	r3, [sp, #40]	; 0x28
   1365c:	601c      	str	r4, [r3, #0]
   1365e:	e755      	b.n	1350c <_nl_make_l10nflist+0x1f0>
   13660:	f04f 0900 	mov.w	r9, #0
   13664:	e77f      	b.n	13566 <_nl_make_l10nflist+0x24a>
   13666:	9f1a      	ldr	r7, [sp, #104]	; 0x68
   13668:	462b      	mov	r3, r5
   1366a:	9a1d      	ldr	r2, [sp, #116]	; 0x74
   1366c:	f109 0a01 	add.w	sl, r9, #1
   13670:	991c      	ldr	r1, [sp, #112]	; 0x70
   13672:	9702      	str	r7, [sp, #8]
   13674:	9f19      	ldr	r7, [sp, #100]	; 0x64
   13676:	981b      	ldr	r0, [sp, #108]	; 0x6c
   13678:	9205      	str	r2, [sp, #20]
   1367a:	221b      	movs	r2, #27
   1367c:	9701      	str	r7, [sp, #4]
   1367e:	9f18      	ldr	r7, [sp, #96]	; 0x60
   13680:	9104      	str	r1, [sp, #16]
   13682:	4659      	mov	r1, fp
   13684:	9003      	str	r0, [sp, #12]
   13686:	f8cd 8018 	str.w	r8, [sp, #24]
   1368a:	980a      	ldr	r0, [sp, #40]	; 0x28
   1368c:	9700      	str	r7, [sp, #0]
   1368e:	f7ff fe45 	bl	1331c <_nl_make_l10nflist>
   13692:	f109 0304 	add.w	r3, r9, #4
   13696:	46d1      	mov	r9, sl
   13698:	f844 0023 	str.w	r0, [r4, r3, lsl #2]
   1369c:	e778      	b.n	13590 <_nl_make_l10nflist+0x274>
   1369e:	2014      	movs	r0, #20
   136a0:	f00a f87c 	bl	1d79c <__libc_malloc>
   136a4:	4604      	mov	r4, r0
   136a6:	b138      	cbz	r0, 136b8 <_nl_make_l10nflist+0x39c>
   136a8:	6027      	str	r7, [r4, #0]
   136aa:	2301      	movs	r3, #1
   136ac:	e722      	b.n	134f4 <_nl_make_l10nflist+0x1d8>
   136ae:	4604      	mov	r4, r0
   136b0:	e776      	b.n	135a0 <_nl_make_l10nflist+0x284>
   136b2:	f8dd 902c 	ldr.w	r9, [sp, #44]	; 0x2c
   136b6:	e6c5      	b.n	13444 <_nl_make_l10nflist+0x128>
   136b8:	4638      	mov	r0, r7
   136ba:	2400      	movs	r4, #0
   136bc:	f00a fac4 	bl	1dc48 <__free>
   136c0:	e76e      	b.n	135a0 <_nl_make_l10nflist+0x284>
   136c2:	bf00      	nop

000136c4 <_nl_normalize_codeset>:
   136c4:	e92d 41f0 	stmdb	sp!, {r4, r5, r6, r7, r8, lr}
   136c8:	2900      	cmp	r1, #0
   136ca:	d053      	beq.n	13774 <_nl_normalize_codeset+0xb0>
   136cc:	f640 35f4 	movw	r5, #3060	; 0xbf4
   136d0:	f2c0 0506 	movt	r5, #6
   136d4:	1e46      	subs	r6, r0, #1
   136d6:	4688      	mov	r8, r1
   136d8:	6b6f      	ldr	r7, [r5, #52]	; 0x34
   136da:	eb06 0c01 	add.w	ip, r6, r1
   136de:	2401      	movs	r4, #1
   136e0:	4633      	mov	r3, r6
   136e2:	2000      	movs	r0, #0
   136e4:	f813 2f01 	ldrb.w	r2, [r3, #1]!
   136e8:	f1a2 0130 	sub.w	r1, r2, #48	; 0x30
   136ec:	f837 2012 	ldrh.w	r2, [r7, r2, lsl #1]
   136f0:	0712      	lsls	r2, r2, #28
   136f2:	d504      	bpl.n	136fe <_nl_normalize_codeset+0x3a>
   136f4:	290a      	cmp	r1, #10
   136f6:	f100 0001 	add.w	r0, r0, #1
   136fa:	bf28      	it	cs
   136fc:	2400      	movcs	r4, #0
   136fe:	459c      	cmp	ip, r3
   13700:	d1f0      	bne.n	136e4 <_nl_normalize_codeset+0x20>
   13702:	bb3c      	cbnz	r4, 13754 <_nl_normalize_codeset+0x90>
   13704:	3001      	adds	r0, #1
   13706:	f00a f849 	bl	1d79c <__libc_malloc>
   1370a:	4604      	mov	r4, r0
   1370c:	b330      	cbz	r0, 1375c <_nl_normalize_codeset+0x98>
   1370e:	f8d5 e038 	ldr.w	lr, [r5, #56]	; 0x38
   13712:	2200      	movs	r2, #0
   13714:	e008      	b.n	13728 <_nl_normalize_codeset+0x64>
   13716:	f85e 3025 	ldr.w	r3, [lr, r5, lsl #2]
   1371a:	3201      	adds	r2, #1
   1371c:	4590      	cmp	r8, r2
   1371e:	f104 0401 	add.w	r4, r4, #1
   13722:	f804 3c01 	strb.w	r3, [r4, #-1]
   13726:	d911      	bls.n	1374c <_nl_normalize_codeset+0x88>
   13728:	f816 3f01 	ldrb.w	r3, [r6, #1]!
   1372c:	f1a3 0c30 	sub.w	ip, r3, #48	; 0x30
   13730:	b21d      	sxth	r5, r3
   13732:	f837 1015 	ldrh.w	r1, [r7, r5, lsl #1]
   13736:	0549      	lsls	r1, r1, #21
   13738:	d4ed      	bmi.n	13716 <_nl_normalize_codeset+0x52>
   1373a:	f1bc 0f09 	cmp.w	ip, #9
   1373e:	f102 0201 	add.w	r2, r2, #1
   13742:	bf9c      	itt	ls
   13744:	7023      	strbls	r3, [r4, #0]
   13746:	3401      	addls	r4, #1
   13748:	4590      	cmp	r8, r2
   1374a:	d8ed      	bhi.n	13728 <_nl_normalize_codeset+0x64>
   1374c:	2300      	movs	r3, #0
   1374e:	7023      	strb	r3, [r4, #0]
   13750:	e8bd 81f0 	ldmia.w	sp!, {r4, r5, r6, r7, r8, pc}
   13754:	3004      	adds	r0, #4
   13756:	f00a f821 	bl	1d79c <__libc_malloc>
   1375a:	b910      	cbnz	r0, 13762 <_nl_normalize_codeset+0x9e>
   1375c:	2000      	movs	r0, #0
   1375e:	e8bd 81f0 	ldmia.w	sp!, {r4, r5, r6, r7, r8, pc}
   13762:	4604      	mov	r4, r0
   13764:	f247 3369 	movw	r3, #29545	; 0x7369
   13768:	6b6f      	ldr	r7, [r5, #52]	; 0x34
   1376a:	f2c0 036f 	movt	r3, #111	; 0x6f
   1376e:	f844 3b03 	str.w	r3, [r4], #3
   13772:	e7cc      	b.n	1370e <_nl_normalize_codeset+0x4a>
   13774:	2004      	movs	r0, #4
   13776:	f00a f811 	bl	1d79c <__libc_malloc>
   1377a:	2800      	cmp	r0, #0
   1377c:	d0ee      	beq.n	1375c <_nl_normalize_codeset+0x98>
   1377e:	4604      	mov	r4, r0
   13780:	f247 3369 	movw	r3, #29545	; 0x7369
   13784:	f2c0 036f 	movt	r3, #111	; 0x6f
   13788:	f844 3b03 	str.w	r3, [r4], #3
   1378c:	e7de      	b.n	1374c <_nl_normalize_codeset+0x88>
   1378e:	bf00      	nop

00013790 <_nl_explode_name>:
   13790:	e92d 4ff8 	stmdb	sp!, {r3, r4, r5, r6, r7, r8, r9, sl, fp, lr}
   13794:	469a      	mov	sl, r3
   13796:	9d0a      	ldr	r5, [sp, #40]	; 0x28
   13798:	2300      	movs	r3, #0
   1379a:	4691      	mov	r9, r2
   1379c:	6013      	str	r3, [r2, #0]
   1379e:	9a0b      	ldr	r2, [sp, #44]	; 0x2c
   137a0:	4683      	mov	fp, r0
   137a2:	f8ca 3000 	str.w	r3, [sl]
   137a6:	602b      	str	r3, [r5, #0]
   137a8:	6013      	str	r3, [r2, #0]
   137aa:	6008      	str	r0, [r1, #0]
   137ac:	7803      	ldrb	r3, [r0, #0]
   137ae:	f003 02bf 	and.w	r2, r3, #191	; 0xbf
   137b2:	2b5f      	cmp	r3, #95	; 0x5f
   137b4:	bf18      	it	ne
   137b6:	2a00      	cmpne	r2, #0
   137b8:	d053      	beq.n	13862 <_nl_explode_name+0xd2>
   137ba:	2b2e      	cmp	r3, #46	; 0x2e
   137bc:	d051      	beq.n	13862 <_nl_explode_name+0xd2>
   137be:	4607      	mov	r7, r0
   137c0:	7879      	ldrb	r1, [r7, #1]
   137c2:	1c7e      	adds	r6, r7, #1
   137c4:	f1b1 045f 	subs.w	r4, r1, #95	; 0x5f
   137c8:	bf18      	it	ne
   137ca:	2401      	movne	r4, #1
   137cc:	2900      	cmp	r1, #0
   137ce:	bf08      	it	eq
   137d0:	2400      	moveq	r4, #0
   137d2:	2c00      	cmp	r4, #0
   137d4:	d05b      	beq.n	1388e <_nl_explode_name+0xfe>
   137d6:	292e      	cmp	r1, #46	; 0x2e
   137d8:	bf18      	it	ne
   137da:	2940      	cmpne	r1, #64	; 0x40
   137dc:	4637      	mov	r7, r6
   137de:	bf14      	ite	ne
   137e0:	2401      	movne	r4, #1
   137e2:	2400      	moveq	r4, #0
   137e4:	d1ec      	bne.n	137c0 <_nl_explode_name+0x30>
   137e6:	45b3      	cmp	fp, r6
   137e8:	d03b      	beq.n	13862 <_nl_explode_name+0xd2>
   137ea:	292e      	cmp	r1, #46	; 0x2e
   137ec:	d012      	beq.n	13814 <_nl_explode_name+0x84>
   137ee:	2940      	cmp	r1, #64	; 0x40
   137f0:	d041      	beq.n	13876 <_nl_explode_name+0xe6>
   137f2:	f8da 3000 	ldr.w	r3, [sl]
   137f6:	b10b      	cbz	r3, 137fc <_nl_explode_name+0x6c>
   137f8:	781b      	ldrb	r3, [r3, #0]
   137fa:	b143      	cbz	r3, 1380e <_nl_explode_name+0x7e>
   137fc:	682b      	ldr	r3, [r5, #0]
   137fe:	b11b      	cbz	r3, 13808 <_nl_explode_name+0x78>
   13800:	781b      	ldrb	r3, [r3, #0]
   13802:	b90b      	cbnz	r3, 13808 <_nl_explode_name+0x78>
   13804:	f024 0402 	bic.w	r4, r4, #2
   13808:	4620      	mov	r0, r4
   1380a:	e8bd 8ff8 	ldmia.w	sp!, {r3, r4, r5, r6, r7, r8, r9, sl, fp, pc}
   1380e:	f024 0404 	bic.w	r4, r4, #4
   13812:	e7f3      	b.n	137fc <_nl_explode_name+0x6c>
   13814:	4630      	mov	r0, r6
   13816:	2300      	movs	r3, #0
   13818:	f800 3b01 	strb.w	r3, [r0], #1
   1381c:	f044 0b02 	orr.w	fp, r4, #2
   13820:	6028      	str	r0, [r5, #0]
   13822:	7871      	ldrb	r1, [r6, #1]
   13824:	f011 0fbf 	tst.w	r1, #191	; 0xbf
   13828:	bf18      	it	ne
   1382a:	4607      	movne	r7, r0
   1382c:	d101      	bne.n	13832 <_nl_explode_name+0xa2>
   1382e:	e053      	b.n	138d8 <_nl_explode_name+0x148>
   13830:	4637      	mov	r7, r6
   13832:	787b      	ldrb	r3, [r7, #1]
   13834:	1c7e      	adds	r6, r7, #1
   13836:	f013 0fbf 	tst.w	r3, #191	; 0xbf
   1383a:	d1f9      	bne.n	13830 <_nl_explode_name+0xa0>
   1383c:	42b0      	cmp	r0, r6
   1383e:	d043      	beq.n	138c8 <_nl_explode_name+0x138>
   13840:	1a31      	subs	r1, r6, r0
   13842:	f7ff ff3f 	bl	136c4 <_nl_normalize_codeset>
   13846:	9b0b      	ldr	r3, [sp, #44]	; 0x2c
   13848:	4680      	mov	r8, r0
   1384a:	6018      	str	r0, [r3, #0]
   1384c:	2800      	cmp	r0, #0
   1384e:	d046      	beq.n	138de <_nl_explode_name+0x14e>
   13850:	4601      	mov	r1, r0
   13852:	6828      	ldr	r0, [r5, #0]
   13854:	f00b f89c 	bl	1e990 <strcmp>
   13858:	b3c0      	cbz	r0, 138cc <_nl_explode_name+0x13c>
   1385a:	f044 0403 	orr.w	r4, r4, #3
   1385e:	7879      	ldrb	r1, [r7, #1]
   13860:	e7c5      	b.n	137ee <_nl_explode_name+0x5e>
   13862:	4658      	mov	r0, fp
   13864:	2400      	movs	r4, #0
   13866:	f00b fbab 	bl	1efc0 <strlen>
   1386a:	f81b 1000 	ldrb.w	r1, [fp, r0]
   1386e:	eb0b 0600 	add.w	r6, fp, r0
   13872:	2940      	cmp	r1, #64	; 0x40
   13874:	d1bd      	bne.n	137f2 <_nl_explode_name+0x62>
   13876:	4633      	mov	r3, r6
   13878:	2200      	movs	r2, #0
   1387a:	f803 2b01 	strb.w	r2, [r3], #1
   1387e:	f8c9 3000 	str.w	r3, [r9]
   13882:	7873      	ldrb	r3, [r6, #1]
   13884:	2b00      	cmp	r3, #0
   13886:	d0b4      	beq.n	137f2 <_nl_explode_name+0x62>
   13888:	f044 0408 	orr.w	r4, r4, #8
   1388c:	e7b1      	b.n	137f2 <_nl_explode_name+0x62>
   1388e:	45b3      	cmp	fp, r6
   13890:	d0e7      	beq.n	13862 <_nl_explode_name+0xd2>
   13892:	295f      	cmp	r1, #95	; 0x5f
   13894:	d1a9      	bne.n	137ea <_nl_explode_name+0x5a>
   13896:	7034      	strb	r4, [r6, #0]
   13898:	3702      	adds	r7, #2
   1389a:	f8ca 7000 	str.w	r7, [sl]
   1389e:	7871      	ldrb	r1, [r6, #1]
   138a0:	463e      	mov	r6, r7
   138a2:	f001 03bf 	and.w	r3, r1, #191	; 0xbf
   138a6:	292e      	cmp	r1, #46	; 0x2e
   138a8:	bf18      	it	ne
   138aa:	2b00      	cmpne	r3, #0
   138ac:	d007      	beq.n	138be <_nl_explode_name+0x12e>
   138ae:	f816 1f01 	ldrb.w	r1, [r6, #1]!
   138b2:	f001 03bf 	and.w	r3, r1, #191	; 0xbf
   138b6:	292e      	cmp	r1, #46	; 0x2e
   138b8:	bf18      	it	ne
   138ba:	2b00      	cmpne	r3, #0
   138bc:	d1f7      	bne.n	138ae <_nl_explode_name+0x11e>
   138be:	292e      	cmp	r1, #46	; 0x2e
   138c0:	f04f 0404 	mov.w	r4, #4
   138c4:	d193      	bne.n	137ee <_nl_explode_name+0x5e>
   138c6:	e7a5      	b.n	13814 <_nl_explode_name+0x84>
   138c8:	465c      	mov	r4, fp
   138ca:	e790      	b.n	137ee <_nl_explode_name+0x5e>
   138cc:	4640      	mov	r0, r8
   138ce:	465c      	mov	r4, fp
   138d0:	f00a f9ba 	bl	1dc48 <__free>
   138d4:	7879      	ldrb	r1, [r7, #1]
   138d6:	e78a      	b.n	137ee <_nl_explode_name+0x5e>
   138d8:	465c      	mov	r4, fp
   138da:	4606      	mov	r6, r0
   138dc:	e787      	b.n	137ee <_nl_explode_name+0x5e>
   138de:	f04f 34ff 	mov.w	r4, #4294967295	; 0xffffffff
   138e2:	e791      	b.n	13808 <_nl_explode_name+0x78>

000138e4 <__gettext_free_exp>:
   138e4:	b1d8      	cbz	r0, 1391e <__gettext_free_exp+0x3a>
   138e6:	6803      	ldr	r3, [r0, #0]
   138e8:	b510      	push	{r4, lr}
   138ea:	2b02      	cmp	r3, #2
   138ec:	4604      	mov	r4, r0
   138ee:	d00b      	beq.n	13908 <__gettext_free_exp+0x24>
   138f0:	2b03      	cmp	r3, #3
   138f2:	d006      	beq.n	13902 <__gettext_free_exp+0x1e>
   138f4:	2b01      	cmp	r3, #1
   138f6:	d00a      	beq.n	1390e <__gettext_free_exp+0x2a>
   138f8:	4620      	mov	r0, r4
   138fa:	e8bd 4010 	ldmia.w	sp!, {r4, lr}
   138fe:	f00a b9a3 	b.w	1dc48 <__free>
   13902:	6900      	ldr	r0, [r0, #16]
   13904:	f7ff ffee 	bl	138e4 <__gettext_free_exp>
   13908:	68e0      	ldr	r0, [r4, #12]
   1390a:	f7ff ffeb 	bl	138e4 <__gettext_free_exp>
   1390e:	68a0      	ldr	r0, [r4, #8]
   13910:	f7ff ffe8 	bl	138e4 <__gettext_free_exp>
   13914:	4620      	mov	r0, r4
   13916:	e8bd 4010 	ldmia.w	sp!, {r4, lr}
   1391a:	f00a b995 	b.w	1dc48 <__free>
   1391e:	4770      	bx	lr

00013920 <new_exp>:
   13920:	e92d 41f0 	stmdb	sp!, {r4, r5, r6, r7, r8, lr}
   13924:	4688      	mov	r8, r1
   13926:	b3a0      	cbz	r0, 13992 <new_exp+0x72>
   13928:	1e43      	subs	r3, r0, #1
   1392a:	4604      	mov	r4, r0
   1392c:	4615      	mov	r5, r2
   1392e:	f852 6023 	ldr.w	r6, [r2, r3, lsl #2]
   13932:	009f      	lsls	r7, r3, #2
   13934:	b91e      	cbnz	r6, 1393e <new_exp+0x1e>
   13936:	e01c      	b.n	13972 <new_exp+0x52>
   13938:	f855 2023 	ldr.w	r2, [r5, r3, lsl #2]
   1393c:	b1ca      	cbz	r2, 13972 <new_exp+0x52>
   1393e:	f113 33ff 	adds.w	r3, r3, #4294967295	; 0xffffffff
   13942:	d2f9      	bcs.n	13938 <new_exp+0x18>
   13944:	2014      	movs	r0, #20
   13946:	f009 ff29 	bl	1d79c <__libc_malloc>
   1394a:	b190      	cbz	r0, 13972 <new_exp+0x52>
   1394c:	f107 0308 	add.w	r3, r7, #8
   13950:	1d02      	adds	r2, r0, #4
   13952:	4403      	add	r3, r0
   13954:	e9c0 4800 	strd	r4, r8, [r0]
   13958:	443d      	add	r5, r7
   1395a:	f843 6904 	str.w	r6, [r3], #-4
   1395e:	4293      	cmp	r3, r2
   13960:	d015      	beq.n	1398e <new_exp+0x6e>
   13962:	f855 6d04 	ldr.w	r6, [r5, #-4]!
   13966:	f843 6904 	str.w	r6, [r3], #-4
   1396a:	4293      	cmp	r3, r2
   1396c:	d1f9      	bne.n	13962 <new_exp+0x42>
   1396e:	e8bd 81f0 	ldmia.w	sp!, {r4, r5, r6, r7, r8, pc}
   13972:	f104 4480 	add.w	r4, r4, #1073741824	; 0x40000000
   13976:	3c01      	subs	r4, #1
   13978:	eb05 0484 	add.w	r4, r5, r4, lsl #2
   1397c:	e001      	b.n	13982 <new_exp+0x62>
   1397e:	f854 6d04 	ldr.w	r6, [r4, #-4]!
   13982:	4630      	mov	r0, r6
   13984:	f7ff ffae 	bl	138e4 <__gettext_free_exp>
   13988:	42ac      	cmp	r4, r5
   1398a:	d1f8      	bne.n	1397e <new_exp+0x5e>
   1398c:	2000      	movs	r0, #0
   1398e:	e8bd 81f0 	ldmia.w	sp!, {r4, r5, r6, r7, r8, pc}
   13992:	2014      	movs	r0, #20
   13994:	f009 ff02 	bl	1d79c <__libc_malloc>
   13998:	2800      	cmp	r0, #0
   1399a:	d0f7      	beq.n	1398c <new_exp+0x6c>
   1399c:	2300      	movs	r3, #0
   1399e:	f8c0 8004 	str.w	r8, [r0, #4]
   139a2:	6003      	str	r3, [r0, #0]
   139a4:	e7f3      	b.n	1398e <new_exp+0x6e>
   139a6:	bf00      	nop

000139a8 <__gettextparse>:
   139a8:	f647 3398 	movw	r3, #31640	; 0x7b98
   139ac:	f2c0 0307 	movt	r3, #7
   139b0:	e92d 4ff0 	stmdb	sp!, {r4, r5, r6, r7, r8, r9, sl, fp, lr}
   139b4:	461a      	mov	r2, r3
   139b6:	f2ad 4de4 	subw	sp, sp, #1252	; 0x4e4
   139ba:	6812      	ldr	r2, [r2, #0]
   139bc:	ac0b      	add	r4, sp, #44	; 0x2c
   139be:	f641 6704 	movw	r7, #7684	; 0x1e04
   139c2:	9305      	str	r3, [sp, #20]
   139c4:	f2c0 0705 	movt	r7, #5
   139c8:	2300      	movs	r3, #0
   139ca:	46a1      	mov	r9, r4
   139cc:	461d      	mov	r5, r3
   139ce:	f06f 0b01 	mvn.w	fp, #1
   139d2:	f04f 08c8 	mov.w	r8, #200	; 0xc8
   139d6:	ae6f      	add	r6, sp, #444	; 0x1bc
   139d8:	9303      	str	r3, [sp, #12]
   139da:	9006      	str	r0, [sp, #24]
   139dc:	f8ad 302c 	strh.w	r3, [sp, #44]	; 0x2c
   139e0:	f8cd 24dc 	str.w	r2, [sp, #1244]	; 0x4dc
   139e4:	9602      	str	r6, [sp, #8]
   139e6:	577b      	ldrsb	r3, [r7, r5]
   139e8:	f113 0f0a 	cmn.w	r3, #10
   139ec:	d014      	beq.n	13a18 <__gettextparse+0x70>
   139ee:	f11b 0f02 	cmn.w	fp, #2
   139f2:	f000 80f3 	beq.w	13bdc <__gettextparse+0x234>
   139f6:	f1bb 0f00 	cmp.w	fp, #0
   139fa:	bfc4      	itt	gt
   139fc:	eb07 020b 	addgt.w	r2, r7, fp
   13a00:	f892 20d0 	ldrbgt.w	r2, [r2, #208]	; 0xd0
   13a04:	dd5d      	ble.n	13ac2 <__gettextparse+0x11a>
   13a06:	4413      	add	r3, r2
   13a08:	2b36      	cmp	r3, #54	; 0x36
   13a0a:	d805      	bhi.n	13a18 <__gettextparse+0x70>
   13a0c:	443b      	add	r3, r7
   13a0e:	f993 101c 	ldrsb.w	r1, [r3, #28]
   13a12:	4291      	cmp	r1, r2
   13a14:	f000 80d2 	beq.w	13bbc <__gettextparse+0x214>
   13a18:	197b      	adds	r3, r7, r5
   13a1a:	f893 308c 	ldrb.w	r3, [r3, #140]	; 0x8c
   13a1e:	b1c3      	cbz	r3, 13a52 <__gettextparse+0xaa>
   13a20:	18f9      	adds	r1, r7, r3
   13a22:	1e9a      	subs	r2, r3, #2
   13a24:	f891 10a8 	ldrb.w	r1, [r1, #168]	; 0xa8
   13a28:	f1c1 0001 	rsb	r0, r1, #1
   13a2c:	f856 0020 	ldr.w	r0, [r6, r0, lsl #2]
   13a30:	2a0b      	cmp	r2, #11
   13a32:	f200 826a 	bhi.w	13f0a <__gettextparse+0x562>
   13a36:	e8df f012 	tbh	[pc, r2, lsl #1]
   13a3a:	0170      	.short	0x0170
   13a3c:	019e017d 	.word	0x019e017d
   13a40:	004801a8 	.word	0x004801a8
   13a44:	00480048 	.word	0x00480048
   13a48:	01c70048 	.word	0x01c70048
   13a4c:	01b60192 	.word	0x01b60192
   13a50:	01ad      	.short	0x01ad
   13a52:	9b03      	ldr	r3, [sp, #12]
   13a54:	2b03      	cmp	r3, #3
   13a56:	d113      	bne.n	13a80 <__gettextparse+0xd8>
   13a58:	f1bb 0f00 	cmp.w	fp, #0
   13a5c:	bfc8      	it	gt
   13a5e:	f06f 0b01 	mvngt.w	fp, #1
   13a62:	dc0d      	bgt.n	13a80 <__gettextparse+0xd8>
   13a64:	d10c      	bne.n	13a80 <__gettextparse+0xd8>
   13a66:	464c      	mov	r4, r9
   13a68:	2501      	movs	r5, #1
   13a6a:	e018      	b.n	13a9e <__gettextparse+0xf6>
   13a6c:	f893 5054 	ldrb.w	r5, [r3, #84]	; 0x54
   13a70:	2d00      	cmp	r5, #0
   13a72:	f040 8145 	bne.w	13d00 <__gettextparse+0x358>
   13a76:	454c      	cmp	r4, r9
   13a78:	d010      	beq.n	13a9c <__gettextparse+0xf4>
   13a7a:	f934 5d02 	ldrsh.w	r5, [r4, #-2]!
   13a7e:	3e04      	subs	r6, #4
   13a80:	577b      	ldrsb	r3, [r7, r5]
   13a82:	f113 0f0a 	cmn.w	r3, #10
   13a86:	d0f6      	beq.n	13a76 <__gettextparse+0xce>
   13a88:	3301      	adds	r3, #1
   13a8a:	2b36      	cmp	r3, #54	; 0x36
   13a8c:	d8f3      	bhi.n	13a76 <__gettextparse+0xce>
   13a8e:	443b      	add	r3, r7
   13a90:	f993 201c 	ldrsb.w	r2, [r3, #28]
   13a94:	2a01      	cmp	r2, #1
   13a96:	d0e9      	beq.n	13a6c <__gettextparse+0xc4>
   13a98:	454c      	cmp	r4, r9
   13a9a:	d1ee      	bne.n	13a7a <__gettextparse+0xd2>
   13a9c:	2501      	movs	r5, #1
   13a9e:	ab0b      	add	r3, sp, #44	; 0x2c
   13aa0:	429c      	cmp	r4, r3
   13aa2:	d002      	beq.n	13aaa <__gettextparse+0x102>
   13aa4:	4620      	mov	r0, r4
   13aa6:	f00a f8cf 	bl	1dc48 <__free>
   13aaa:	9b05      	ldr	r3, [sp, #20]
   13aac:	4628      	mov	r0, r5
   13aae:	f8dd 24dc 	ldr.w	r2, [sp, #1244]	; 0x4dc
   13ab2:	681b      	ldr	r3, [r3, #0]
   13ab4:	429a      	cmp	r2, r3
   13ab6:	f040 8247 	bne.w	13f48 <__gettextparse+0x5a0>
   13aba:	f20d 4de4 	addw	sp, sp, #1252	; 0x4e4
   13abe:	e8bd 8ff0 	ldmia.w	sp!, {r4, r5, r6, r7, r8, r9, sl, fp, pc}
   13ac2:	f04f 0b00 	mov.w	fp, #0
   13ac6:	465a      	mov	r2, fp
   13ac8:	e79e      	b.n	13a08 <__gettextparse+0x60>
   13aca:	e956 1201 	ldrd	r1, r2, [r6, #-4]
   13ace:	f1a6 0a0c 	sub.w	sl, r6, #12
   13ad2:	f856 3c08 	ldr.w	r3, [r6, #-8]
   13ad6:	2002      	movs	r0, #2
   13ad8:	9209      	str	r2, [sp, #36]	; 0x24
   13ada:	aa08      	add	r2, sp, #32
   13adc:	9308      	str	r3, [sp, #32]
   13ade:	f7ff ff1f 	bl	13920 <new_exp>
   13ae2:	1fa2      	subs	r2, r4, #6
   13ae4:	f04f 35ff 	mov.w	r5, #4294967295	; 0xffffffff
   13ae8:	2102      	movs	r1, #2
   13aea:	f9b2 3000 	ldrsh.w	r3, [r2]
   13aee:	f10a 0604 	add.w	r6, sl, #4
   13af2:	f8ca 0004 	str.w	r0, [sl, #4]
   13af6:	441d      	add	r5, r3
   13af8:	2d36      	cmp	r5, #54	; 0x36
   13afa:	d807      	bhi.n	13b0c <__gettextparse+0x164>
   13afc:	443d      	add	r5, r7
   13afe:	f995 001c 	ldrsb.w	r0, [r5, #28]
   13b02:	4298      	cmp	r0, r3
   13b04:	bf08      	it	eq
   13b06:	f895 5054 	ldrbeq.w	r5, [r5, #84]	; 0x54
   13b0a:	d002      	beq.n	13b12 <__gettextparse+0x16a>
   13b0c:	4439      	add	r1, r7
   13b0e:	f991 50cc 	ldrsb.w	r5, [r1, #204]	; 0xcc
   13b12:	f108 4300 	add.w	r3, r8, #2147483648	; 0x80000000
   13b16:	1c94      	adds	r4, r2, #2
   13b18:	3b01      	subs	r3, #1
   13b1a:	8055      	strh	r5, [r2, #2]
   13b1c:	005b      	lsls	r3, r3, #1
   13b1e:	eb09 0203 	add.w	r2, r9, r3
   13b22:	4294      	cmp	r4, r2
   13b24:	d344      	bcc.n	13bb0 <__gettextparse+0x208>
   13b26:	eba4 0609 	sub.w	r6, r4, r9
   13b2a:	f242 720f 	movw	r2, #9999	; 0x270f
   13b2e:	4590      	cmp	r8, r2
   13b30:	ea4f 0666 	mov.w	r6, r6, asr #1
   13b34:	f106 0601 	add.w	r6, r6, #1
   13b38:	f200 8159 	bhi.w	13dee <__gettextparse+0x446>
   13b3c:	3302      	adds	r3, #2
   13b3e:	f242 7810 	movw	r8, #10000	; 0x2710
   13b42:	4598      	cmp	r8, r3
   13b44:	f04f 0006 	mov.w	r0, #6
   13b48:	bf28      	it	cs
   13b4a:	4698      	movcs	r8, r3
   13b4c:	fb00 f008 	mul.w	r0, r0, r8
   13b50:	3003      	adds	r0, #3
   13b52:	f009 fe23 	bl	1d79c <__libc_malloc>
   13b56:	2800      	cmp	r0, #0
   13b58:	f000 8149 	beq.w	13dee <__gettextparse+0x446>
   13b5c:	ea4f 0a46 	mov.w	sl, r6, lsl #1
   13b60:	00b6      	lsls	r6, r6, #2
   13b62:	eb00 0248 	add.w	r2, r0, r8, lsl #1
   13b66:	4649      	mov	r1, r9
   13b68:	9201      	str	r2, [sp, #4]
   13b6a:	4652      	mov	r2, sl
   13b6c:	9004      	str	r0, [sp, #16]
   13b6e:	f7fc eb04 	blx	10178 <__rel_iplt_end+0x10>
   13b72:	9902      	ldr	r1, [sp, #8]
   13b74:	4632      	mov	r2, r6
   13b76:	9801      	ldr	r0, [sp, #4]
   13b78:	ea4f 0448 	mov.w	r4, r8, lsl #1
   13b7c:	f7fc eafc 	blx	10178 <__rel_iplt_end+0x10>
   13b80:	ab0b      	add	r3, sp, #44	; 0x2c
   13b82:	4599      	cmp	r9, r3
   13b84:	9b04      	ldr	r3, [sp, #16]
   13b86:	d004      	beq.n	13b92 <__gettextparse+0x1ea>
   13b88:	4648      	mov	r0, r9
   13b8a:	9302      	str	r3, [sp, #8]
   13b8c:	f00a f85c 	bl	1dc48 <__free>
   13b90:	9b02      	ldr	r3, [sp, #8]
   13b92:	1ea2      	subs	r2, r4, #2
   13b94:	f1aa 0a02 	sub.w	sl, sl, #2
   13b98:	eb03 040a 	add.w	r4, r3, sl
   13b9c:	441a      	add	r2, r3
   13b9e:	9901      	ldr	r1, [sp, #4]
   13ba0:	4294      	cmp	r4, r2
   13ba2:	f1a6 0604 	sub.w	r6, r6, #4
   13ba6:	440e      	add	r6, r1
   13ba8:	f080 81ac 	bcs.w	13f04 <__gettextparse+0x55c>
   13bac:	4699      	mov	r9, r3
   13bae:	9102      	str	r1, [sp, #8]
   13bb0:	2d09      	cmp	r5, #9
   13bb2:	f47f af18 	bne.w	139e6 <__gettextparse+0x3e>
   13bb6:	464c      	mov	r4, r9
   13bb8:	2500      	movs	r5, #0
   13bba:	e770      	b.n	13a9e <__gettextparse+0xf6>
   13bbc:	f893 5054 	ldrb.w	r5, [r3, #84]	; 0x54
   13bc0:	2d00      	cmp	r5, #0
   13bc2:	f000 80a4 	beq.w	13d0e <__gettextparse+0x366>
   13bc6:	9b03      	ldr	r3, [sp, #12]
   13bc8:	b10b      	cbz	r3, 13bce <__gettextparse+0x226>
   13bca:	3b01      	subs	r3, #1
   13bcc:	9303      	str	r3, [sp, #12]
   13bce:	9b07      	ldr	r3, [sp, #28]
   13bd0:	4622      	mov	r2, r4
   13bd2:	3604      	adds	r6, #4
   13bd4:	f06f 0b01 	mvn.w	fp, #1
   13bd8:	6033      	str	r3, [r6, #0]
   13bda:	e79a      	b.n	13b12 <__gettextparse+0x16a>
   13bdc:	9a06      	ldr	r2, [sp, #24]
   13bde:	6811      	ldr	r1, [r2, #0]
   13be0:	780a      	ldrb	r2, [r1, #0]
   13be2:	b92a      	cbnz	r2, 13bf0 <__gettextparse+0x248>
   13be4:	e0fe      	b.n	13de4 <__gettextparse+0x43c>
   13be6:	f811 2f01 	ldrb.w	r2, [r1, #1]!
   13bea:	2a00      	cmp	r2, #0
   13bec:	f000 80fa 	beq.w	13de4 <__gettextparse+0x43c>
   13bf0:	2a20      	cmp	r2, #32
   13bf2:	bf18      	it	ne
   13bf4:	2a09      	cmpne	r2, #9
   13bf6:	d0f6      	beq.n	13be6 <__gettextparse+0x23e>
   13bf8:	1c48      	adds	r0, r1, #1
   13bfa:	4693      	mov	fp, r2
   13bfc:	2a7c      	cmp	r2, #124	; 0x7c
   13bfe:	f200 810f 	bhi.w	13e20 <__gettextparse+0x478>
   13c02:	e8df f012 	tbh	[pc, r2, lsl #1]
   13c06:	00ef      	.short	0x00ef
   13c08:	010d010d 	.word	0x010d010d
   13c0c:	010d010d 	.word	0x010d010d
   13c10:	010d010d 	.word	0x010d010d
   13c14:	010d010d 	.word	0x010d010d
   13c18:	00ef010d 	.word	0x00ef010d
   13c1c:	010d010d 	.word	0x010d010d
   13c20:	010d010d 	.word	0x010d010d
   13c24:	010d010d 	.word	0x010d010d
   13c28:	010d010d 	.word	0x010d010d
   13c2c:	010d010d 	.word	0x010d010d
   13c30:	010d010d 	.word	0x010d010d
   13c34:	010d010d 	.word	0x010d010d
   13c38:	010d010d 	.word	0x010d010d
   13c3c:	010d010d 	.word	0x010d010d
   13c40:	010d010d 	.word	0x010d010d
   13c44:	010d010d 	.word	0x010d010d
   13c48:	010d016a 	.word	0x010d016a
   13c4c:	010d010d 	.word	0x010d010d
   13c50:	01610173 	.word	0x01610173
   13c54:	0167010d 	.word	0x0167010d
   13c58:	01590167 	.word	0x01590167
   13c5c:	010d0151 	.word	0x010d0151
   13c60:	010d0149 	.word	0x010d0149
   13c64:	01250141 	.word	0x01250141
   13c68:	01250125 	.word	0x01250125
   13c6c:	01250125 	.word	0x01250125
   13c70:	01250125 	.word	0x01250125
   13c74:	01250125 	.word	0x01250125
   13c78:	01670125 	.word	0x01670125
   13c7c:	011300ef 	.word	0x011300ef
   13c80:	00f70109 	.word	0x00f70109
   13c84:	010d0167 	.word	0x010d0167
   13c88:	010d010d 	.word	0x010d010d
   13c8c:	010d010d 	.word	0x010d010d
   13c90:	010d010d 	.word	0x010d010d
   13c94:	010d010d 	.word	0x010d010d
   13c98:	010d010d 	.word	0x010d010d
   13c9c:	010d010d 	.word	0x010d010d
   13ca0:	010d010d 	.word	0x010d010d
   13ca4:	010d010d 	.word	0x010d010d
   13ca8:	010d010d 	.word	0x010d010d
   13cac:	010d010d 	.word	0x010d010d
   13cb0:	010d010d 	.word	0x010d010d
   13cb4:	010d010d 	.word	0x010d010d
   13cb8:	010d010d 	.word	0x010d010d
   13cbc:	010d010d 	.word	0x010d010d
   13cc0:	010d010d 	.word	0x010d010d
   13cc4:	010d010d 	.word	0x010d010d
   13cc8:	010d010d 	.word	0x010d010d
   13ccc:	010d010d 	.word	0x010d010d
   13cd0:	010d010d 	.word	0x010d010d
   13cd4:	010d010d 	.word	0x010d010d
   13cd8:	010d010d 	.word	0x010d010d
   13cdc:	010d010d 	.word	0x010d010d
   13ce0:	0167010d 	.word	0x0167010d
   13ce4:	010d010d 	.word	0x010d010d
   13ce8:	010d010d 	.word	0x010d010d
   13cec:	010d010d 	.word	0x010d010d
   13cf0:	010d010d 	.word	0x010d010d
   13cf4:	010d010d 	.word	0x010d010d
   13cf8:	010d010d 	.word	0x010d010d
   13cfc:	0161010d 	.word	0x0161010d
   13d00:	9b07      	ldr	r3, [sp, #28]
   13d02:	4622      	mov	r2, r4
   13d04:	3604      	adds	r6, #4
   13d06:	6033      	str	r3, [r6, #0]
   13d08:	2303      	movs	r3, #3
   13d0a:	9303      	str	r3, [sp, #12]
   13d0c:	e701      	b.n	13b12 <__gettextparse+0x16a>
   13d0e:	4622      	mov	r2, r4
   13d10:	6870      	ldr	r0, [r6, #4]
   13d12:	46b2      	mov	sl, r6
   13d14:	f06f 010f 	mvn.w	r1, #15
   13d18:	e6e7      	b.n	13aea <__gettextparse+0x142>
   13d1a:	6833      	ldr	r3, [r6, #0]
   13d1c:	2b00      	cmp	r3, #0
   13d1e:	f43f aea2 	beq.w	13a66 <__gettextparse+0xbe>
   13d22:	9a06      	ldr	r2, [sp, #24]
   13d24:	f1a6 0a04 	sub.w	sl, r6, #4
   13d28:	f06f 0509 	mvn.w	r5, #9
   13d2c:	2101      	movs	r1, #1
   13d2e:	6053      	str	r3, [r2, #4]
   13d30:	1ea2      	subs	r2, r4, #2
   13d32:	e6da      	b.n	13aea <__gettextparse+0x142>
   13d34:	f856 2c08 	ldr.w	r2, [r6, #-8]
   13d38:	2110      	movs	r1, #16
   13d3a:	f856 0c10 	ldr.w	r0, [r6, #-16]
   13d3e:	f1a6 0a14 	sub.w	sl, r6, #20
   13d42:	6833      	ldr	r3, [r6, #0]
   13d44:	f04f 35ff 	mov.w	r5, #4294967295	; 0xffffffff
   13d48:	9209      	str	r2, [sp, #36]	; 0x24
   13d4a:	aa08      	add	r2, sp, #32
   13d4c:	9008      	str	r0, [sp, #32]
   13d4e:	2003      	movs	r0, #3
   13d50:	930a      	str	r3, [sp, #40]	; 0x28
   13d52:	f7ff fde5 	bl	13920 <new_exp>
   13d56:	f1a4 020a 	sub.w	r2, r4, #10
   13d5a:	2102      	movs	r1, #2
   13d5c:	e6c5      	b.n	13aea <__gettextparse+0x142>
   13d5e:	2200      	movs	r2, #0
   13d60:	f1a6 0a04 	sub.w	sl, r6, #4
   13d64:	4611      	mov	r1, r2
   13d66:	4610      	mov	r0, r2
   13d68:	f7ff fdda 	bl	13920 <new_exp>
   13d6c:	f04f 35ff 	mov.w	r5, #4294967295	; 0xffffffff
   13d70:	1ea2      	subs	r2, r4, #2
   13d72:	2102      	movs	r1, #2
   13d74:	e6b9      	b.n	13aea <__gettextparse+0x142>
   13d76:	6830      	ldr	r0, [r6, #0]
   13d78:	210f      	movs	r1, #15
   13d7a:	f856 3c08 	ldr.w	r3, [r6, #-8]
   13d7e:	9009      	str	r0, [sp, #36]	; 0x24
   13d80:	f1a6 0a0c 	sub.w	sl, r6, #12
   13d84:	aa08      	add	r2, sp, #32
   13d86:	2002      	movs	r0, #2
   13d88:	e6a8      	b.n	13adc <__gettextparse+0x134>
   13d8a:	6830      	ldr	r0, [r6, #0]
   13d8c:	210e      	movs	r1, #14
   13d8e:	f856 3c08 	ldr.w	r3, [r6, #-8]
   13d92:	e7f4      	b.n	13d7e <__gettextparse+0x3d6>
   13d94:	1fa2      	subs	r2, r4, #6
   13d96:	f856 0c04 	ldr.w	r0, [r6, #-4]
   13d9a:	f1a6 0a0c 	sub.w	sl, r6, #12
   13d9e:	f04f 35ff 	mov.w	r5, #4294967295	; 0xffffffff
   13da2:	2102      	movs	r1, #2
   13da4:	e6a1      	b.n	13aea <__gettextparse+0x142>
   13da6:	2200      	movs	r2, #0
   13da8:	2101      	movs	r1, #1
   13daa:	4610      	mov	r0, r2
   13dac:	f1a6 0a04 	sub.w	sl, r6, #4
   13db0:	f7ff fdb6 	bl	13920 <new_exp>
   13db4:	1ea2      	subs	r2, r4, #2
   13db6:	2800      	cmp	r0, #0
   13db8:	f000 80a0 	beq.w	13efc <__gettextparse+0x554>
   13dbc:	6833      	ldr	r3, [r6, #0]
   13dbe:	f04f 35ff 	mov.w	r5, #4294967295	; 0xffffffff
   13dc2:	2102      	movs	r1, #2
   13dc4:	6083      	str	r3, [r0, #8]
   13dc6:	e690      	b.n	13aea <__gettextparse+0x142>
   13dc8:	46b2      	mov	sl, r6
   13dca:	2102      	movs	r1, #2
   13dcc:	f85a 3908 	ldr.w	r3, [sl], #-8
   13dd0:	aa08      	add	r2, sp, #32
   13dd2:	2001      	movs	r0, #1
   13dd4:	f04f 35ff 	mov.w	r5, #4294967295	; 0xffffffff
   13dd8:	9308      	str	r3, [sp, #32]
   13dda:	f7ff fda1 	bl	13920 <new_exp>
   13dde:	1f22      	subs	r2, r4, #4
   13de0:	2102      	movs	r1, #2
   13de2:	e682      	b.n	13aea <__gettextparse+0x142>
   13de4:	9806      	ldr	r0, [sp, #24]
   13de6:	2200      	movs	r2, #0
   13de8:	4693      	mov	fp, r2
   13dea:	6001      	str	r1, [r0, #0]
   13dec:	e60c      	b.n	13a08 <__gettextparse+0x60>
   13dee:	464c      	mov	r4, r9
   13df0:	2502      	movs	r5, #2
   13df2:	e654      	b.n	13a9e <__gettextparse+0xf6>
   13df4:	784a      	ldrb	r2, [r1, #1]
   13df6:	f240 1b03 	movw	fp, #259	; 0x103
   13dfa:	2a3d      	cmp	r2, #61	; 0x3d
   13dfc:	bf0d      	iteet	eq
   13dfe:	3102      	addeq	r1, #2
   13e00:	9a06      	ldrne	r2, [sp, #24]
   13e02:	2109      	movne	r1, #9
   13e04:	9806      	ldreq	r0, [sp, #24]
   13e06:	bf0d      	iteet	eq
   13e08:	2207      	moveq	r2, #7
   13e0a:	6010      	strne	r0, [r2, #0]
   13e0c:	2207      	movne	r2, #7
   13e0e:	6001      	streq	r1, [r0, #0]
   13e10:	bf08      	it	eq
   13e12:	210b      	moveq	r1, #11
   13e14:	9107      	str	r1, [sp, #28]
   13e16:	e5f6      	b.n	13a06 <__gettextparse+0x5e>
   13e18:	784a      	ldrb	r2, [r1, #1]
   13e1a:	2a3d      	cmp	r2, #61	; 0x3d
   13e1c:	f000 8082 	beq.w	13f24 <__gettextparse+0x57c>
   13e20:	9a06      	ldr	r2, [sp, #24]
   13e22:	f44f 7b80 	mov.w	fp, #256	; 0x100
   13e26:	6010      	str	r0, [r2, #0]
   13e28:	2201      	movs	r2, #1
   13e2a:	e5ec      	b.n	13a06 <__gettextparse+0x5e>
   13e2c:	784a      	ldrb	r2, [r1, #1]
   13e2e:	f240 1b03 	movw	fp, #259	; 0x103
   13e32:	2a3d      	cmp	r2, #61	; 0x3d
   13e34:	bf0d      	iteet	eq
   13e36:	3102      	addeq	r1, #2
   13e38:	9a06      	ldrne	r2, [sp, #24]
   13e3a:	2108      	movne	r1, #8
   13e3c:	9806      	ldreq	r0, [sp, #24]
   13e3e:	bf0d      	iteet	eq
   13e40:	2207      	moveq	r2, #7
   13e42:	6010      	strne	r0, [r2, #0]
   13e44:	2207      	movne	r2, #7
   13e46:	6001      	streq	r1, [r0, #0]
   13e48:	bf08      	it	eq
   13e4a:	210a      	moveq	r1, #10
   13e4c:	9107      	str	r1, [sp, #28]
   13e4e:	e5da      	b.n	13a06 <__gettextparse+0x5e>
   13e50:	7849      	ldrb	r1, [r1, #1]
   13e52:	3a30      	subs	r2, #48	; 0x30
   13e54:	9207      	str	r2, [sp, #28]
   13e56:	f1a1 0230 	sub.w	r2, r1, #48	; 0x30
   13e5a:	2a09      	cmp	r2, #9
   13e5c:	d80e      	bhi.n	13e7c <__gettextparse+0x4d4>
   13e5e:	9a07      	ldr	r2, [sp, #28]
   13e60:	f04f 0e0a 	mov.w	lr, #10
   13e64:	fb0e 1202 	mla	r2, lr, r2, r1
   13e68:	f810 1f01 	ldrb.w	r1, [r0, #1]!
   13e6c:	f1a1 0c30 	sub.w	ip, r1, #48	; 0x30
   13e70:	f1bc 0f09 	cmp.w	ip, #9
   13e74:	f1a2 0230 	sub.w	r2, r2, #48	; 0x30
   13e78:	d9f4      	bls.n	13e64 <__gettextparse+0x4bc>
   13e7a:	9207      	str	r2, [sp, #28]
   13e7c:	9a06      	ldr	r2, [sp, #24]
   13e7e:	f44f 7b83 	mov.w	fp, #262	; 0x106
   13e82:	6010      	str	r0, [r2, #0]
   13e84:	220b      	movs	r2, #11
   13e86:	e5be      	b.n	13a06 <__gettextparse+0x5e>
   13e88:	9a06      	ldr	r2, [sp, #24]
   13e8a:	2104      	movs	r1, #4
   13e8c:	f240 1b05 	movw	fp, #261	; 0x105
   13e90:	9107      	str	r1, [sp, #28]
   13e92:	6010      	str	r0, [r2, #0]
   13e94:	2209      	movs	r2, #9
   13e96:	e5b6      	b.n	13a06 <__gettextparse+0x5e>
   13e98:	9a06      	ldr	r2, [sp, #24]
   13e9a:	2107      	movs	r1, #7
   13e9c:	f44f 7b82 	mov.w	fp, #260	; 0x104
   13ea0:	9107      	str	r1, [sp, #28]
   13ea2:	6010      	str	r0, [r2, #0]
   13ea4:	2208      	movs	r2, #8
   13ea6:	e5ae      	b.n	13a06 <__gettextparse+0x5e>
   13ea8:	9a06      	ldr	r2, [sp, #24]
   13eaa:	2106      	movs	r1, #6
   13eac:	f44f 7b82 	mov.w	fp, #260	; 0x104
   13eb0:	9107      	str	r1, [sp, #28]
   13eb2:	6010      	str	r0, [r2, #0]
   13eb4:	2208      	movs	r2, #8
   13eb6:	e5a6      	b.n	13a06 <__gettextparse+0x5e>
   13eb8:	9a06      	ldr	r2, [sp, #24]
   13eba:	2103      	movs	r1, #3
   13ebc:	f240 1b05 	movw	fp, #261	; 0x105
   13ec0:	9107      	str	r1, [sp, #28]
   13ec2:	6010      	str	r0, [r2, #0]
   13ec4:	2209      	movs	r2, #9
   13ec6:	e59e      	b.n	13a06 <__gettextparse+0x5e>
   13ec8:	f891 c001 	ldrb.w	ip, [r1, #1]
   13ecc:	4594      	cmp	ip, r2
   13ece:	bf08      	it	eq
   13ed0:	1c88      	addeq	r0, r1, #2
   13ed2:	d1a5      	bne.n	13e20 <__gettextparse+0x478>
   13ed4:	9a06      	ldr	r2, [sp, #24]
   13ed6:	6010      	str	r0, [r2, #0]
   13ed8:	e58d      	b.n	139f6 <__gettextparse+0x4e>
   13eda:	784a      	ldrb	r2, [r1, #1]
   13edc:	2a3d      	cmp	r2, #61	; 0x3d
   13ede:	d02a      	beq.n	13f36 <__gettextparse+0x58e>
   13ee0:	9a06      	ldr	r2, [sp, #24]
   13ee2:	f04f 0b21 	mov.w	fp, #33	; 0x21
   13ee6:	6010      	str	r0, [r2, #0]
   13ee8:	220a      	movs	r2, #10
   13eea:	e58c      	b.n	13a06 <__gettextparse+0x5e>
   13eec:	9a06      	ldr	r2, [sp, #24]
   13eee:	2105      	movs	r1, #5
   13ef0:	f240 1b05 	movw	fp, #261	; 0x105
   13ef4:	9107      	str	r1, [sp, #28]
   13ef6:	6010      	str	r0, [r2, #0]
   13ef8:	2209      	movs	r2, #9
   13efa:	e584      	b.n	13a06 <__gettextparse+0x5e>
   13efc:	f04f 35ff 	mov.w	r5, #4294967295	; 0xffffffff
   13f00:	2102      	movs	r1, #2
   13f02:	e5f2      	b.n	13aea <__gettextparse+0x142>
   13f04:	461c      	mov	r4, r3
   13f06:	2501      	movs	r5, #1
   13f08:	e5cc      	b.n	13aa4 <__gettextparse+0xfc>
   13f0a:	443b      	add	r3, r7
   13f0c:	b20a      	sxth	r2, r1
   13f0e:	f893 10b8 	ldrb.w	r1, [r3, #184]	; 0xb8
   13f12:	eba6 0a82 	sub.w	sl, r6, r2, lsl #2
   13f16:	eba4 0242 	sub.w	r2, r4, r2, lsl #1
   13f1a:	3910      	subs	r1, #16
   13f1c:	187b      	adds	r3, r7, r1
   13f1e:	f993 50c8 	ldrsb.w	r5, [r3, #200]	; 0xc8
   13f22:	e5e2      	b.n	13aea <__gettextparse+0x142>
   13f24:	9806      	ldr	r0, [sp, #24]
   13f26:	3102      	adds	r1, #2
   13f28:	2206      	movs	r2, #6
   13f2a:	f44f 7b81 	mov.w	fp, #258	; 0x102
   13f2e:	6001      	str	r1, [r0, #0]
   13f30:	210c      	movs	r1, #12
   13f32:	9107      	str	r1, [sp, #28]
   13f34:	e567      	b.n	13a06 <__gettextparse+0x5e>
   13f36:	9806      	ldr	r0, [sp, #24]
   13f38:	3102      	adds	r1, #2
   13f3a:	2206      	movs	r2, #6
   13f3c:	f44f 7b81 	mov.w	fp, #258	; 0x102
   13f40:	6001      	str	r1, [r0, #0]
   13f42:	210d      	movs	r1, #13
   13f44:	9107      	str	r1, [sp, #28]
   13f46:	e55e      	b.n	13a06 <__gettextparse+0x5e>
   13f48:	f00f f9d2 	bl	232f0 <__stack_chk_fail>

00013f4c <__gettext_extract_plural>:
   13f4c:	e92d 41f0 	stmdb	sp!, {r4, r5, r6, r7, r8, lr}
   13f50:	f647 3598 	movw	r5, #31640	; 0x7b98
   13f54:	f2c0 0507 	movt	r5, #7
   13f58:	b084      	sub	sp, #16
   13f5a:	460f      	mov	r7, r1
   13f5c:	4616      	mov	r6, r2
   13f5e:	682b      	ldr	r3, [r5, #0]
   13f60:	9303      	str	r3, [sp, #12]
   13f62:	2800      	cmp	r0, #0
   13f64:	d03a      	beq.n	13fdc <__gettext_extract_plural+0x90>
   13f66:	f242 0118 	movw	r1, #8216	; 0x2018
   13f6a:	f2c0 0105 	movt	r1, #5
   13f6e:	4604      	mov	r4, r0
   13f70:	f00b faa2 	bl	1f4b8 <strstr>
   13f74:	f242 0120 	movw	r1, #8224	; 0x2020
   13f78:	f2c0 0105 	movt	r1, #5
   13f7c:	4680      	mov	r8, r0
   13f7e:	4620      	mov	r0, r4
   13f80:	f00b fa9a 	bl	1f4b8 <strstr>
   13f84:	2800      	cmp	r0, #0
   13f86:	bf18      	it	ne
   13f88:	f1b8 0f00 	cmpne.w	r8, #0
   13f8c:	d026      	beq.n	13fdc <__gettext_extract_plural+0x90>
   13f8e:	7a43      	ldrb	r3, [r0, #9]
   13f90:	f100 0409 	add.w	r4, r0, #9
   13f94:	b313      	cbz	r3, 13fdc <__gettext_extract_plural+0x90>
   13f96:	4a1b      	ldr	r2, [pc, #108]	; (14004 <__gettext_extract_plural+0xb8>)
   13f98:	ee1d 1f70 	mrc	15, 0, r1, cr13, cr0, {3}
   13f9c:	447a      	add	r2, pc
   13f9e:	6812      	ldr	r2, [r2, #0]
   13fa0:	5889      	ldr	r1, [r1, r2]
   13fa2:	e002      	b.n	13faa <__gettext_extract_plural+0x5e>
   13fa4:	f814 3f01 	ldrb.w	r3, [r4, #1]!
   13fa8:	b1c3      	cbz	r3, 13fdc <__gettext_extract_plural+0x90>
   13faa:	f831 2013 	ldrh.w	r2, [r1, r3, lsl #1]
   13fae:	0492      	lsls	r2, r2, #18
   13fb0:	d4f8      	bmi.n	13fa4 <__gettext_extract_plural+0x58>
   13fb2:	3b30      	subs	r3, #48	; 0x30
   13fb4:	2b09      	cmp	r3, #9
   13fb6:	d811      	bhi.n	13fdc <__gettext_extract_plural+0x90>
   13fb8:	220a      	movs	r2, #10
   13fba:	4669      	mov	r1, sp
   13fbc:	4620      	mov	r0, r4
   13fbe:	f000 fd15 	bl	149ec <__strtoul>
   13fc2:	9b00      	ldr	r3, [sp, #0]
   13fc4:	42a3      	cmp	r3, r4
   13fc6:	d009      	beq.n	13fdc <__gettext_extract_plural+0x90>
   13fc8:	aa04      	add	r2, sp, #16
   13fca:	f108 0307 	add.w	r3, r8, #7
